

Microchip MPLAB XC8 Assembler V2.10 build 88905656 
                                                                                               Fri Nov 13 21:27:12 2020

Microchip MPLAB XC8 C Compiler v2.10 (Free license) build 20190730164152 Og1 
     1                           	processor	16F18344
     2                           	opt	pw 120
     3                           	opt	flic
     4                           	psect	stringtext1,global,class=STRCODE,delta=2
     5                           	psect	cinit,global,class=CODE,merge=1,delta=2
     6                           	psect	bssCOMMON,global,class=COMMON,space=1,delta=1
     7                           	psect	bssBANK1,global,class=BANK1,space=1,delta=1
     8                           	psect	bssBANK2,global,class=BANK2,space=1,delta=1
     9                           	psect	clrtext,global,class=CODE,delta=2
    10                           	psect	cstackBANK1,global,class=BANK1,space=1,delta=1
    11                           	psect	cstackCOMMON,global,class=COMMON,space=1,delta=1
    12                           	psect	cstackBANK0,global,class=BANK0,space=1,delta=1
    13                           	psect	maintext,global,class=CODE,merge=1,split=1,delta=2
    14                           	psect	text1,local,class=CODE,merge=1,delta=2,group=1
    15                           	psect	text2,local,class=CODE,merge=1,delta=2
    16                           	psect	text3,local,class=CODE,merge=1,delta=2
    17                           	psect	text4,local,class=CODE,merge=1,delta=2
    18                           	psect	text5,local,class=CODE,merge=1,delta=2
    19                           	psect	text6,local,class=CODE,merge=1,delta=2,group=1
    20                           	psect	text7,local,class=CODE,merge=1,delta=2,group=1
    21                           	psect	text8,local,class=CODE,merge=1,delta=2,group=1
    22                           	psect	text9,local,class=CODE,merge=1,delta=2,group=1
    23                           	psect	text10,local,class=CODE,merge=1,delta=2,group=1
    24                           	psect	text11,local,class=CODE,merge=1,delta=2
    25                           	psect	text12,local,class=CODE,merge=1,delta=2
    26                           	psect	text13,local,class=CODE,merge=1,delta=2
    27                           	psect	text14,local,class=CODE,merge=1,delta=2
    28                           	psect	intentry,global,class=CODE,delta=2
    29                           	dabs	1,0x7E,2
    30  0000                     
    31                           ; Version 2.10
    32                           ; Generated 31/07/2019 GMT
    33                           ; 
    34                           ; Copyright © 2019, Microchip Technology Inc. and its subsidiaries ("Microchip")
    35                           ; All rights reserved.
    36                           ; 
    37                           ; This software is developed by Microchip Technology Inc. and its subsidiaries ("Microch
      +                          ip").
    38                           ; 
    39                           ; Redistribution and use in source and binary forms, with or without modification, are
    40                           ; permitted provided that the following conditions are met:
    41                           ; 
    42                           ;     1. Redistributions of source code must retain the above copyright notice, this lis
      +                          t of
    43                           ;        conditions and the following disclaimer.
    44                           ; 
    45                           ;     2. Redistributions in binary form must reproduce the above copyright notice, this 
      +                          list
    46                           ;        of conditions and the following disclaimer in the documentation and/or other
    47                           ;        materials provided with the distribution.
    48                           ; 
    49                           ;     3. Microchip's name may not be used to endorse or promote products derived from th
      +                          is
    50                           ;        software without specific prior written permission.
    51                           ; 
    52                           ; THIS SOFTWARE IS PROVIDED BY MICROCHIP "AS IS" AND ANY EXPRESS OR IMPLIED WARRANTIES,
    53                           ; INCLUDING, BUT NOT LIMITED TO, THE IMPLIED WARRANTIES OF MERCHANTABILITY AND FITNESS F
      +                          OR
    54                           ; PURPOSE ARE DISCLAIMED.  IN NO EVENT SHALL MICROCHIP BE LIABLE FOR ANY DIRECT, INDIREC
      +                          T,
    55                           ; INCIDENTAL, SPECIAL, EXEMPLARY, OR CONSEQUENTIAL DAMAGES (INCLUDING BUT NOT LIMITED TO
    56                           ; PROCUREMENT OF SUBSTITUTE GOODS OR SERVICES; LOSS OF USE, DATA OR PROFITS; OR BUSINESS
    57                           ; INTERRUPTION) HOWSOEVER CAUSED AND ON ANY THEORY OF LIABILITY, WHETHER IN CONTRACT, ST
      +                          RICT
    58                           ; LIABILITY, OR TORT (INCLUDING NEGLIGENCE OR OTHERWISE) ARISING IN ANY WAY OUT OF THE U
      +                          SE OF
    59                           ; THIS SOFTWARE, EVEN IF ADVISED OF THE POSSIBILITY OF SUCH DAMAGE.
    60                           ; 
    61                           ; 
    62                           ; Code-generator required, PIC16F18344 Definitions
    63                           ; 
    64                           ; SFR Addresses
    65  0000                     	;# 
    66  0001                     	;# 
    67  0002                     	;# 
    68  0003                     	;# 
    69  0004                     	;# 
    70  0005                     	;# 
    71  0006                     	;# 
    72  0007                     	;# 
    73  0008                     	;# 
    74  0009                     	;# 
    75  000A                     	;# 
    76  000B                     	;# 
    77  000C                     	;# 
    78  000D                     	;# 
    79  000E                     	;# 
    80  0010                     	;# 
    81  0011                     	;# 
    82  0012                     	;# 
    83  0013                     	;# 
    84  0014                     	;# 
    85  0015                     	;# 
    86  0015                     	;# 
    87  0016                     	;# 
    88  0016                     	;# 
    89  0017                     	;# 
    90  0018                     	;# 
    91  0019                     	;# 
    92  0019                     	;# 
    93  001A                     	;# 
    94  001B                     	;# 
    95  001C                     	;# 
    96  001D                     	;# 
    97  001E                     	;# 
    98  001F                     	;# 
    99  008C                     	;# 
   100  008D                     	;# 
   101  008E                     	;# 
   102  0090                     	;# 
   103  0091                     	;# 
   104  0092                     	;# 
   105  0093                     	;# 
   106  0094                     	;# 
   107  0097                     	;# 
   108  009B                     	;# 
   109  009B                     	;# 
   110  009C                     	;# 
   111  009D                     	;# 
   112  009E                     	;# 
   113  009F                     	;# 
   114  010C                     	;# 
   115  010D                     	;# 
   116  010E                     	;# 
   117  0111                     	;# 
   118  0112                     	;# 
   119  0113                     	;# 
   120  0114                     	;# 
   121  0115                     	;# 
   122  0116                     	;# 
   123  0117                     	;# 
   124  0118                     	;# 
   125  0119                     	;# 
   126  018C                     	;# 
   127  018D                     	;# 
   128  018E                     	;# 
   129  0197                     	;# 
   130  0199                     	;# 
   131  0199                     	;# 
   132  0199                     	;# 
   133  019A                     	;# 
   134  019A                     	;# 
   135  019A                     	;# 
   136  019B                     	;# 
   137  019B                     	;# 
   138  019B                     	;# 
   139  019B                     	;# 
   140  019B                     	;# 
   141  019C                     	;# 
   142  019C                     	;# 
   143  019C                     	;# 
   144  019D                     	;# 
   145  019D                     	;# 
   146  019D                     	;# 
   147  019E                     	;# 
   148  019E                     	;# 
   149  019E                     	;# 
   150  019F                     	;# 
   151  019F                     	;# 
   152  019F                     	;# 
   153  019F                     	;# 
   154  019F                     	;# 
   155  020C                     	;# 
   156  020D                     	;# 
   157  020E                     	;# 
   158  0211                     	;# 
   159  0211                     	;# 
   160  0212                     	;# 
   161  0212                     	;# 
   162  0213                     	;# 
   163  0213                     	;# 
   164  0214                     	;# 
   165  0214                     	;# 
   166  0215                     	;# 
   167  0215                     	;# 
   168  0215                     	;# 
   169  0215                     	;# 
   170  0216                     	;# 
   171  0216                     	;# 
   172  0217                     	;# 
   173  0217                     	;# 
   174  028C                     	;# 
   175  028D                     	;# 
   176  028E                     	;# 
   177  0291                     	;# 
   178  0291                     	;# 
   179  0292                     	;# 
   180  0293                     	;# 
   181  0294                     	;# 
   182  0295                     	;# 
   183  0295                     	;# 
   184  0296                     	;# 
   185  0297                     	;# 
   186  0298                     	;# 
   187  029F                     	;# 
   188  030C                     	;# 
   189  030D                     	;# 
   190  030E                     	;# 
   191  0311                     	;# 
   192  0311                     	;# 
   193  0312                     	;# 
   194  0313                     	;# 
   195  0314                     	;# 
   196  0315                     	;# 
   197  0315                     	;# 
   198  0316                     	;# 
   199  0317                     	;# 
   200  0318                     	;# 
   201  038C                     	;# 
   202  038D                     	;# 
   203  038E                     	;# 
   204  0391                     	;# 
   205  0392                     	;# 
   206  0393                     	;# 
   207  0394                     	;# 
   208  0395                     	;# 
   209  0396                     	;# 
   210  0397                     	;# 
   211  0398                     	;# 
   212  0399                     	;# 
   213  039A                     	;# 
   214  039C                     	;# 
   215  039D                     	;# 
   216  039E                     	;# 
   217  039F                     	;# 
   218  0411                     	;# 
   219  0411                     	;# 
   220  0412                     	;# 
   221  0413                     	;# 
   222  0414                     	;# 
   223  0415                     	;# 
   224  0416                     	;# 
   225  0417                     	;# 
   226  0418                     	;# 
   227  0418                     	;# 
   228  0419                     	;# 
   229  041A                     	;# 
   230  041B                     	;# 
   231  041C                     	;# 
   232  041D                     	;# 
   233  041E                     	;# 
   234  041F                     	;# 
   235  0498                     	;# 
   236  0498                     	;# 
   237  0499                     	;# 
   238  049A                     	;# 
   239  049B                     	;# 
   240  049B                     	;# 
   241  049C                     	;# 
   242  049D                     	;# 
   243  049E                     	;# 
   244  049F                     	;# 
   245  0617                     	;# 
   246  0618                     	;# 
   247  0619                     	;# 
   248  0619                     	;# 
   249  061A                     	;# 
   250  061B                     	;# 
   251  061C                     	;# 
   252  061C                     	;# 
   253  061F                     	;# 
   254  0691                     	;# 
   255  0692                     	;# 
   256  0693                     	;# 
   257  0694                     	;# 
   258  0695                     	;# 
   259  0696                     	;# 
   260  0697                     	;# 
   261  0698                     	;# 
   262  0699                     	;# 
   263  0711                     	;# 
   264  0712                     	;# 
   265  0713                     	;# 
   266  0714                     	;# 
   267  0715                     	;# 
   268  0716                     	;# 
   269  0717                     	;# 
   270  0718                     	;# 
   271  0719                     	;# 
   272  0891                     	;# 
   273  0891                     	;# 
   274  0891                     	;# 
   275  0891                     	;# 
   276  0891                     	;# 
   277  0891                     	;# 
   278  0892                     	;# 
   279  0892                     	;# 
   280  0892                     	;# 
   281  0893                     	;# 
   282  0893                     	;# 
   283  0893                     	;# 
   284  0893                     	;# 
   285  0893                     	;# 
   286  0893                     	;# 
   287  0894                     	;# 
   288  0894                     	;# 
   289  0894                     	;# 
   290  0895                     	;# 
   291  0895                     	;# 
   292  0895                     	;# 
   293  0896                     	;# 
   294  0896                     	;# 
   295  0896                     	;# 
   296  089B                     	;# 
   297  0911                     	;# 
   298  0912                     	;# 
   299  0913                     	;# 
   300  0914                     	;# 
   301  0915                     	;# 
   302  0916                     	;# 
   303  0918                     	;# 
   304  0919                     	;# 
   305  091A                     	;# 
   306  091B                     	;# 
   307  091C                     	;# 
   308  091D                     	;# 
   309  091E                     	;# 
   310  091F                     	;# 
   311  0E0F                     	;# 
   312  0E10                     	;# 
   313  0E11                     	;# 
   314  0E12                     	;# 
   315  0E13                     	;# 
   316  0E14                     	;# 
   317  0E15                     	;# 
   318  0E16                     	;# 
   319  0E17                     	;# 
   320  0E18                     	;# 
   321  0E19                     	;# 
   322  0E1A                     	;# 
   323  0E1B                     	;# 
   324  0E1C                     	;# 
   325  0E20                     	;# 
   326  0E21                     	;# 
   327  0E22                     	;# 
   328  0E24                     	;# 
   329  0E25                     	;# 
   330  0E28                     	;# 
   331  0E29                     	;# 
   332  0E2A                     	;# 
   333  0E2B                     	;# 
   334  0E2C                     	;# 
   335  0E2D                     	;# 
   336  0E2E                     	;# 
   337  0E2F                     	;# 
   338  0E90                     	;# 
   339  0E91                     	;# 
   340  0E92                     	;# 
   341  0E94                     	;# 
   342  0E95                     	;# 
   343  0E9C                     	;# 
   344  0E9D                     	;# 
   345  0E9E                     	;# 
   346  0E9F                     	;# 
   347  0EA0                     	;# 
   348  0EA1                     	;# 
   349  0EA2                     	;# 
   350  0EA3                     	;# 
   351  0EA4                     	;# 
   352  0EA5                     	;# 
   353  0EA6                     	;# 
   354  0EA7                     	;# 
   355  0F0F                     	;# 
   356  0F10                     	;# 
   357  0F11                     	;# 
   358  0F12                     	;# 
   359  0F13                     	;# 
   360  0F14                     	;# 
   361  0F15                     	;# 
   362  0F16                     	;# 
   363  0F17                     	;# 
   364  0F18                     	;# 
   365  0F19                     	;# 
   366  0F1A                     	;# 
   367  0F1B                     	;# 
   368  0F1C                     	;# 
   369  0F1D                     	;# 
   370  0F1E                     	;# 
   371  0F1F                     	;# 
   372  0F20                     	;# 
   373  0F21                     	;# 
   374  0F22                     	;# 
   375  0F23                     	;# 
   376  0F24                     	;# 
   377  0F25                     	;# 
   378  0F26                     	;# 
   379  0F27                     	;# 
   380  0F28                     	;# 
   381  0F29                     	;# 
   382  0F2A                     	;# 
   383  0F2B                     	;# 
   384  0F2C                     	;# 
   385  0F2D                     	;# 
   386  0F2E                     	;# 
   387  0F2F                     	;# 
   388  0F30                     	;# 
   389  0F31                     	;# 
   390  0F32                     	;# 
   391  0F33                     	;# 
   392  0F34                     	;# 
   393  0F35                     	;# 
   394  0F36                     	;# 
   395  0F37                     	;# 
   396  0FE4                     	;# 
   397  0FE5                     	;# 
   398  0FE6                     	;# 
   399  0FE7                     	;# 
   400  0FE8                     	;# 
   401  0FE9                     	;# 
   402  0FEA                     	;# 
   403  0FEB                     	;# 
   404  0FED                     	;# 
   405  0FEE                     	;# 
   406  0FEF                     	;# 
   407  0000                     	;# 
   408  0001                     	;# 
   409  0002                     	;# 
   410  0003                     	;# 
   411  0004                     	;# 
   412  0005                     	;# 
   413  0006                     	;# 
   414  0007                     	;# 
   415  0008                     	;# 
   416  0009                     	;# 
   417  000A                     	;# 
   418  000B                     	;# 
   419  000C                     	;# 
   420  000D                     	;# 
   421  000E                     	;# 
   422  0010                     	;# 
   423  0011                     	;# 
   424  0012                     	;# 
   425  0013                     	;# 
   426  0014                     	;# 
   427  0015                     	;# 
   428  0015                     	;# 
   429  0016                     	;# 
   430  0016                     	;# 
   431  0017                     	;# 
   432  0018                     	;# 
   433  0019                     	;# 
   434  0019                     	;# 
   435  001A                     	;# 
   436  001B                     	;# 
   437  001C                     	;# 
   438  001D                     	;# 
   439  001E                     	;# 
   440  001F                     	;# 
   441  008C                     	;# 
   442  008D                     	;# 
   443  008E                     	;# 
   444  0090                     	;# 
   445  0091                     	;# 
   446  0092                     	;# 
   447  0093                     	;# 
   448  0094                     	;# 
   449  0097                     	;# 
   450  009B                     	;# 
   451  009B                     	;# 
   452  009C                     	;# 
   453  009D                     	;# 
   454  009E                     	;# 
   455  009F                     	;# 
   456  010C                     	;# 
   457  010D                     	;# 
   458  010E                     	;# 
   459  0111                     	;# 
   460  0112                     	;# 
   461  0113                     	;# 
   462  0114                     	;# 
   463  0115                     	;# 
   464  0116                     	;# 
   465  0117                     	;# 
   466  0118                     	;# 
   467  0119                     	;# 
   468  018C                     	;# 
   469  018D                     	;# 
   470  018E                     	;# 
   471  0197                     	;# 
   472  0199                     	;# 
   473  0199                     	;# 
   474  0199                     	;# 
   475  019A                     	;# 
   476  019A                     	;# 
   477  019A                     	;# 
   478  019B                     	;# 
   479  019B                     	;# 
   480  019B                     	;# 
   481  019B                     	;# 
   482  019B                     	;# 
   483  019C                     	;# 
   484  019C                     	;# 
   485  019C                     	;# 
   486  019D                     	;# 
   487  019D                     	;# 
   488  019D                     	;# 
   489  019E                     	;# 
   490  019E                     	;# 
   491  019E                     	;# 
   492  019F                     	;# 
   493  019F                     	;# 
   494  019F                     	;# 
   495  019F                     	;# 
   496  019F                     	;# 
   497  020C                     	;# 
   498  020D                     	;# 
   499  020E                     	;# 
   500  0211                     	;# 
   501  0211                     	;# 
   502  0212                     	;# 
   503  0212                     	;# 
   504  0213                     	;# 
   505  0213                     	;# 
   506  0214                     	;# 
   507  0214                     	;# 
   508  0215                     	;# 
   509  0215                     	;# 
   510  0215                     	;# 
   511  0215                     	;# 
   512  0216                     	;# 
   513  0216                     	;# 
   514  0217                     	;# 
   515  0217                     	;# 
   516  028C                     	;# 
   517  028D                     	;# 
   518  028E                     	;# 
   519  0291                     	;# 
   520  0291                     	;# 
   521  0292                     	;# 
   522  0293                     	;# 
   523  0294                     	;# 
   524  0295                     	;# 
   525  0295                     	;# 
   526  0296                     	;# 
   527  0297                     	;# 
   528  0298                     	;# 
   529  029F                     	;# 
   530  030C                     	;# 
   531  030D                     	;# 
   532  030E                     	;# 
   533  0311                     	;# 
   534  0311                     	;# 
   535  0312                     	;# 
   536  0313                     	;# 
   537  0314                     	;# 
   538  0315                     	;# 
   539  0315                     	;# 
   540  0316                     	;# 
   541  0317                     	;# 
   542  0318                     	;# 
   543  038C                     	;# 
   544  038D                     	;# 
   545  038E                     	;# 
   546  0391                     	;# 
   547  0392                     	;# 
   548  0393                     	;# 
   549  0394                     	;# 
   550  0395                     	;# 
   551  0396                     	;# 
   552  0397                     	;# 
   553  0398                     	;# 
   554  0399                     	;# 
   555  039A                     	;# 
   556  039C                     	;# 
   557  039D                     	;# 
   558  039E                     	;# 
   559  039F                     	;# 
   560  0411                     	;# 
   561  0411                     	;# 
   562  0412                     	;# 
   563  0413                     	;# 
   564  0414                     	;# 
   565  0415                     	;# 
   566  0416                     	;# 
   567  0417                     	;# 
   568  0418                     	;# 
   569  0418                     	;# 
   570  0419                     	;# 
   571  041A                     	;# 
   572  041B                     	;# 
   573  041C                     	;# 
   574  041D                     	;# 
   575  041E                     	;# 
   576  041F                     	;# 
   577  0498                     	;# 
   578  0498                     	;# 
   579  0499                     	;# 
   580  049A                     	;# 
   581  049B                     	;# 
   582  049B                     	;# 
   583  049C                     	;# 
   584  049D                     	;# 
   585  049E                     	;# 
   586  049F                     	;# 
   587  0617                     	;# 
   588  0618                     	;# 
   589  0619                     	;# 
   590  0619                     	;# 
   591  061A                     	;# 
   592  061B                     	;# 
   593  061C                     	;# 
   594  061C                     	;# 
   595  061F                     	;# 
   596  0691                     	;# 
   597  0692                     	;# 
   598  0693                     	;# 
   599  0694                     	;# 
   600  0695                     	;# 
   601  0696                     	;# 
   602  0697                     	;# 
   603  0698                     	;# 
   604  0699                     	;# 
   605  0711                     	;# 
   606  0712                     	;# 
   607  0713                     	;# 
   608  0714                     	;# 
   609  0715                     	;# 
   610  0716                     	;# 
   611  0717                     	;# 
   612  0718                     	;# 
   613  0719                     	;# 
   614  0891                     	;# 
   615  0891                     	;# 
   616  0891                     	;# 
   617  0891                     	;# 
   618  0891                     	;# 
   619  0891                     	;# 
   620  0892                     	;# 
   621  0892                     	;# 
   622  0892                     	;# 
   623  0893                     	;# 
   624  0893                     	;# 
   625  0893                     	;# 
   626  0893                     	;# 
   627  0893                     	;# 
   628  0893                     	;# 
   629  0894                     	;# 
   630  0894                     	;# 
   631  0894                     	;# 
   632  0895                     	;# 
   633  0895                     	;# 
   634  0895                     	;# 
   635  0896                     	;# 
   636  0896                     	;# 
   637  0896                     	;# 
   638  089B                     	;# 
   639  0911                     	;# 
   640  0912                     	;# 
   641  0913                     	;# 
   642  0914                     	;# 
   643  0915                     	;# 
   644  0916                     	;# 
   645  0918                     	;# 
   646  0919                     	;# 
   647  091A                     	;# 
   648  091B                     	;# 
   649  091C                     	;# 
   650  091D                     	;# 
   651  091E                     	;# 
   652  091F                     	;# 
   653  0E0F                     	;# 
   654  0E10                     	;# 
   655  0E11                     	;# 
   656  0E12                     	;# 
   657  0E13                     	;# 
   658  0E14                     	;# 
   659  0E15                     	;# 
   660  0E16                     	;# 
   661  0E17                     	;# 
   662  0E18                     	;# 
   663  0E19                     	;# 
   664  0E1A                     	;# 
   665  0E1B                     	;# 
   666  0E1C                     	;# 
   667  0E20                     	;# 
   668  0E21                     	;# 
   669  0E22                     	;# 
   670  0E24                     	;# 
   671  0E25                     	;# 
   672  0E28                     	;# 
   673  0E29                     	;# 
   674  0E2A                     	;# 
   675  0E2B                     	;# 
   676  0E2C                     	;# 
   677  0E2D                     	;# 
   678  0E2E                     	;# 
   679  0E2F                     	;# 
   680  0E90                     	;# 
   681  0E91                     	;# 
   682  0E92                     	;# 
   683  0E94                     	;# 
   684  0E95                     	;# 
   685  0E9C                     	;# 
   686  0E9D                     	;# 
   687  0E9E                     	;# 
   688  0E9F                     	;# 
   689  0EA0                     	;# 
   690  0EA1                     	;# 
   691  0EA2                     	;# 
   692  0EA3                     	;# 
   693  0EA4                     	;# 
   694  0EA5                     	;# 
   695  0EA6                     	;# 
   696  0EA7                     	;# 
   697  0F0F                     	;# 
   698  0F10                     	;# 
   699  0F11                     	;# 
   700  0F12                     	;# 
   701  0F13                     	;# 
   702  0F14                     	;# 
   703  0F15                     	;# 
   704  0F16                     	;# 
   705  0F17                     	;# 
   706  0F18                     	;# 
   707  0F19                     	;# 
   708  0F1A                     	;# 
   709  0F1B                     	;# 
   710  0F1C                     	;# 
   711  0F1D                     	;# 
   712  0F1E                     	;# 
   713  0F1F                     	;# 
   714  0F20                     	;# 
   715  0F21                     	;# 
   716  0F22                     	;# 
   717  0F23                     	;# 
   718  0F24                     	;# 
   719  0F25                     	;# 
   720  0F26                     	;# 
   721  0F27                     	;# 
   722  0F28                     	;# 
   723  0F29                     	;# 
   724  0F2A                     	;# 
   725  0F2B                     	;# 
   726  0F2C                     	;# 
   727  0F2D                     	;# 
   728  0F2E                     	;# 
   729  0F2F                     	;# 
   730  0F30                     	;# 
   731  0F31                     	;# 
   732  0F32                     	;# 
   733  0F33                     	;# 
   734  0F34                     	;# 
   735  0F35                     	;# 
   736  0F36                     	;# 
   737  0F37                     	;# 
   738  0FE4                     	;# 
   739  0FE5                     	;# 
   740  0FE6                     	;# 
   741  0FE7                     	;# 
   742  0FE8                     	;# 
   743  0FE9                     	;# 
   744  0FEA                     	;# 
   745  0FEB                     	;# 
   746  0FED                     	;# 
   747  0FEE                     	;# 
   748  0FEF                     	;# 
   749                           
   750                           	psect	stringtext1
   751  07FC                     __pstringtext1:	
   752  07FC                     main@TX_rate:	
   753  07FC  341E               	retlw	30
   754  07FD  3400               	retlw	0
   755  07FE                     __end_ofmain@TX_rate:	
   756  0016                     _TMR0H	set	22
   757  0015                     _TMR0L	set	21
   758  0016                     _TMR0Hbits	set	22
   759  0015                     _TMR0Lbits	set	21
   760  0018                     _T0CON1bits	set	24
   761  0017                     _T0CON0bits	set	23
   762  0010                     _PIR0bits	set	16
   763  000B                     _INTCONbits	set	11
   764  000D                     _PORTB	set	13
   765  000E                     _PORTC	set	14
   766  0065                     _RA5	set	101
   767  006D                     _RB5	set	109
   768  006C                     _RB4	set	108
   769  0073                     _RC3	set	115
   770  0076                     _RC6	set	118
   771  0070                     _RC0	set	112
   772  0071                     _RC1	set	113
   773  0072                     _RC2	set	114
   774  0077                     _RC7	set	119
   775  0075                     _RC5	set	117
   776  0074                     _RC4	set	116
   777  0090                     _PIE0bits	set	144
   778  008D                     _TRISB	set	141
   779  008C                     _TRISA	set	140
   780  008E                     _TRISC	set	142
   781  009D                     _ADCON0bits	set	157
   782  009B                     _ADRESL	set	155
   783  009C                     _ADRESH	set	156
   784  009D                     _ADCON0	set	157
   785  009E                     _ADCON1	set	158
   786  018D                     _ANSELB	set	397
   787  018C                     _ANSELA	set	396
   788  018E                     _ANSELC	set	398
   789  0E10                     _INTPPSbits	set	3600
   790                           
   791                           ; #config settings
   792  0000                     
   793                           	psect	cinit
   794  0033                     start_initialization:	
   795  0033                     __initialization:	
   796                           
   797                           ; Clear objects allocated to COMMON
   798  0033  01FA               	clrf	__pbssCOMMON& (0+127)
   799  0034  01FB               	clrf	(__pbssCOMMON+1)& (0+127)
   800                           
   801                           ; Clear objects allocated to BANK1
   802  0035  30E6               	movlw	low __pbssBANK1
   803  0036  0084               	movwf	4
   804  0037  3000               	movlw	high __pbssBANK1
   805  0038  0085               	movwf	5
   806  0039  3008               	movlw	8
   807  003A  318D  25BB  3180   	fcall	clear_ram0
   808                           
   809                           ; Clear objects allocated to BANK2
   810  003D  3020               	movlw	low __pbssBANK2
   811  003E  0084               	movwf	4
   812  003F  3001               	movlw	high __pbssBANK2
   813  0040  0085               	movwf	5
   814  0041  303A               	movlw	58
   815  0042  318D  25BB  3180   	fcall	clear_ram0
   816  0045                     end_of_initialization:	
   817                           ;End of C runtime variable initialization code
   818                           
   819  0045                     __end_of__initialization:	
   820  0045  107E               	bcf	int$flags,0	;clear compiler interrupt flag (level 1)
   821  0046  0020               	movlb	0
   822  0047  3184  2CD8         	ljmp	_main	;jump to C main() function
   823                           
   824                           	psect	bssCOMMON
   825  007A                     __pbssCOMMON:	
   826  007A                     _wind_set:	
   827  007A                     	ds	2
   828                           
   829                           	psect	bssBANK1
   830  00E6                     __pbssBANK1:	
   831  00E6                     _Dig_val:	
   832  00E6                     	ds	4
   833  00EA                     _wind_time_high:	
   834  00EA                     	ds	2
   835  00EC                     _wind_time_low:	
   836  00EC                     	ds	2
   837                           
   838                           	psect	bssBANK2
   839  0120                     __pbssBANK2:	
   840  0120                     main@F6798:	
   841  0120                     	ds	58
   842                           
   843                           	psect	clrtext
   844  0DBB                     clear_ram0:	
   845                           ;	Called with FSR0 containing the base address, and
   846                           ;	WREG with the size to clear
   847                           
   848  0DBB  0064               	clrwdt	;clear the watchdog before getting into this loop
   849  0DBC                     clrloop0:	
   850  0DBC  0180               	clrf	0	;clear RAM location pointed to by FSR
   851  0DBD  3101               	addfsr 0,1
   852  0DBE  0B89               	decfsz	9,f	;Have we reached the end of clearing yet?
   853  0DBF  2DBC               	goto	clrloop0	;have we reached the end yet?
   854  0DC0  3400               	retlw	0	;all done for this memory range, return
   855                           
   856                           	psect	cstackBANK1
   857  00A0                     __pcstackBANK1:	
   858  00A0                     main@wind_avg:	
   859                           
   860                           ; 58 bytes @ 0x0
   861  00A0                     	ds	58
   862  00DA                     _main$975:	
   863                           
   864                           ; 2 bytes @ 0x3A
   865  00DA                     	ds	2
   866  00DC                     _main$976:	
   867                           
   868                           ; 2 bytes @ 0x3C
   869  00DC                     	ds	2
   870  00DE                     main@temperature:	
   871                           
   872                           ; 2 bytes @ 0x3E
   873  00DE                     	ds	2
   874  00E0                     main@pressure:	
   875                           
   876                           ; 2 bytes @ 0x40
   877  00E0                     	ds	2
   878  00E2                     main@wind_mph:	
   879                           
   880                           ; 2 bytes @ 0x42
   881  00E2                     	ds	2
   882  00E4                     main@x:	
   883                           
   884                           ; 2 bytes @ 0x44
   885  00E4                     	ds	2
   886                           
   887                           	psect	cstackCOMMON
   888  0070                     __pcstackCOMMON:	
   889  0070                     ?_ConfigInterrupts:	
   890  0070                     ?_ConfigTimers:	
   891                           ; 1 bytes @ 0x0
   892                           
   893  0070                     ?_ADC_Init:	
   894                           ; 1 bytes @ 0x0
   895                           
   896  0070                     ?_main:	
   897                           ; 1 bytes @ 0x0
   898                           
   899  0070                     ?_HighIsr:	
   900                           ; 1 bytes @ 0x0
   901                           
   902  0070                     ??_HighIsr:	
   903                           ; 1 bytes @ 0x0
   904                           
   905                           
   906                           ; 1 bytes @ 0x0
   907  0070                     	ds	2
   908  0072                     ??_ConfigInterrupts:	
   909  0072                     ??_ConfigTimers:	
   910                           ; 1 bytes @ 0x2
   911                           
   912  0072                     ?_nib_to_DTMF:	
   913                           ; 1 bytes @ 0x2
   914                           
   915  0072                     ??_ADC_Init:	
   916                           ; 1 bytes @ 0x2
   917                           
   918  0072                     ?__Umul8_16:	
   919                           ; 1 bytes @ 0x2
   920                           
   921  0072                     ?_ADC_Read:	
   922                           ; 2 bytes @ 0x2
   923                           
   924  0072                     ?___awdiv:	
   925                           ; 2 bytes @ 0x2
   926                           
   927  0072                     __Umul8_16@multiplicand:	
   928                           ; 2 bytes @ 0x2
   929                           
   930  0072                     nib_to_DTMF@nib:	
   931                           ; 1 bytes @ 0x2
   932                           
   933  0072                     ADC_Read@channel:	
   934                           ; 2 bytes @ 0x2
   935                           
   936  0072                     ___awdiv@divisor:	
   937                           ; 2 bytes @ 0x2
   938                           
   939                           
   940                           ; 2 bytes @ 0x2
   941  0072                     	ds	2
   942  0074                     ??__Umul8_16:	
   943  0074                     ??_nib_to_DTMF:	
   944                           ; 1 bytes @ 0x4
   945                           
   946  0074                     ?_Send_DTMF_pack:	
   947                           ; 1 bytes @ 0x4
   948                           
   949  0074                     ??_ADC_Read:	
   950                           ; 1 bytes @ 0x4
   951                           
   952  0074                     Send_DTMF_pack@wind:	
   953                           ; 1 bytes @ 0x4
   954                           
   955  0074                     ___awdiv@dividend:	
   956                           ; 2 bytes @ 0x4
   957                           
   958                           
   959                           ; 2 bytes @ 0x4
   960  0074                     	ds	2
   961  0076                     ??___awdiv:	
   962  0076                     Send_DTMF_pack@temperature:	
   963                           ; 1 bytes @ 0x6
   964                           
   965  0076                     ADC_Read@val:	
   966                           ; 2 bytes @ 0x6
   967                           
   968                           
   969                           ; 2 bytes @ 0x6
   970  0076                     	ds	2
   971  0078                     ___fltol@sign1:	
   972  0078                     Send_DTMF_pack@press:	
   973                           ; 1 bytes @ 0x8
   974                           
   975                           
   976                           ; 2 bytes @ 0x8
   977  0078                     	ds	1
   978  0079                     ___fltol@exp1:	
   979                           
   980                           ; 1 bytes @ 0x9
   981  0079                     	ds	1
   982  007A                     ??_Temp_Conv:	
   983  007A                     ??_Pres_Conv:	
   984                           ; 1 bytes @ 0xA
   985                           
   986                           
   987                           	psect	cstackBANK0
   988  0020                     __pcstackBANK0:	
   989                           ; 1 bytes @ 0xA
   990                           
   991  0020                     ??_Send_DTMF_pack:	
   992  0020                     ?___xxtofl:	
   993                           ; 1 bytes @ 0x0
   994                           
   995  0020                     ___awdiv@counter:	
   996                           ; 4 bytes @ 0x0
   997                           
   998  0020                     __Umul8_16@product:	
   999                           ; 1 bytes @ 0x0
  1000                           
  1001  0020                     ___xxtofl@val:	
  1002                           ; 2 bytes @ 0x0
  1003                           
  1004                           
  1005                           ; 4 bytes @ 0x0
  1006  0020                     	ds	1
  1007  0021                     ___awdiv@sign:	
  1008                           
  1009                           ; 1 bytes @ 0x1
  1010  0021                     	ds	1
  1011  0022                     ___awdiv@quotient:	
  1012  0022                     __Umul8_16@word_mpld:	
  1013                           ; 2 bytes @ 0x2
  1014                           
  1015                           
  1016                           ; 2 bytes @ 0x2
  1017  0022                     	ds	1
  1018  0023                     Send_DTMF_pack@high:	
  1019                           
  1020                           ; 2 bytes @ 0x3
  1021  0023                     	ds	1
  1022  0024                     ??___xxtofl:	
  1023  0024                     __Umul8_16@multiplier:	
  1024                           ; 1 bytes @ 0x4
  1025                           
  1026                           
  1027                           ; 1 bytes @ 0x4
  1028  0024                     	ds	1
  1029  0025                     Send_DTMF_pack@low:	
  1030                           
  1031                           ; 2 bytes @ 0x5
  1032  0025                     	ds	3
  1033  0028                     ___xxtofl@sign:	
  1034                           
  1035                           ; 1 bytes @ 0x8
  1036  0028                     	ds	1
  1037  0029                     ___xxtofl@exp:	
  1038                           
  1039                           ; 1 bytes @ 0x9
  1040  0029                     	ds	1
  1041  002A                     ___xxtofl@arg:	
  1042                           
  1043                           ; 4 bytes @ 0xA
  1044  002A                     	ds	4
  1045  002E                     ?___flmul:	
  1046  002E                     ___flmul@b:	
  1047                           ; 4 bytes @ 0xE
  1048                           
  1049                           
  1050                           ; 4 bytes @ 0xE
  1051  002E                     	ds	4
  1052  0032                     ___flmul@a:	
  1053                           
  1054                           ; 4 bytes @ 0x12
  1055  0032                     	ds	4
  1056  0036                     ??___flmul:	
  1057                           
  1058                           ; 1 bytes @ 0x16
  1059  0036                     	ds	5
  1060  003B                     ___flmul@sign:	
  1061                           
  1062                           ; 1 bytes @ 0x1B
  1063  003B                     	ds	1
  1064  003C                     ___flmul@aexp:	
  1065                           
  1066                           ; 1 bytes @ 0x1C
  1067  003C                     	ds	1
  1068  003D                     ___flmul@grs:	
  1069                           
  1070                           ; 4 bytes @ 0x1D
  1071  003D                     	ds	4
  1072  0041                     ___flmul@bexp:	
  1073                           
  1074                           ; 1 bytes @ 0x21
  1075  0041                     	ds	1
  1076  0042                     ___flmul@prod:	
  1077                           
  1078                           ; 4 bytes @ 0x22
  1079  0042                     	ds	4
  1080  0046                     ___flmul@temp:	
  1081                           
  1082                           ; 2 bytes @ 0x26
  1083  0046                     	ds	2
  1084  0048                     ?___fladd:	
  1085  0048                     ___fladd@b:	
  1086                           ; 4 bytes @ 0x28
  1087                           
  1088                           
  1089                           ; 4 bytes @ 0x28
  1090  0048                     	ds	4
  1091  004C                     ___fladd@a:	
  1092                           
  1093                           ; 4 bytes @ 0x2C
  1094  004C                     	ds	4
  1095  0050                     ??___fladd:	
  1096                           
  1097                           ; 1 bytes @ 0x30
  1098  0050                     	ds	8
  1099  0058                     ___fladd@signs:	
  1100                           
  1101                           ; 1 bytes @ 0x38
  1102  0058                     	ds	1
  1103  0059                     ___fladd@aexp:	
  1104                           
  1105                           ; 1 bytes @ 0x39
  1106  0059                     	ds	1
  1107  005A                     ___fladd@bexp:	
  1108                           
  1109                           ; 1 bytes @ 0x3A
  1110  005A                     	ds	1
  1111  005B                     ___fladd@grs:	
  1112                           
  1113                           ; 1 bytes @ 0x3B
  1114  005B                     	ds	1
  1115  005C                     ?___fltol:	
  1116  005C                     ___fltol@f1:	
  1117                           ; 4 bytes @ 0x3C
  1118                           
  1119                           
  1120                           ; 4 bytes @ 0x3C
  1121  005C                     	ds	4
  1122  0060                     ??___fltol:	
  1123                           
  1124                           ; 1 bytes @ 0x40
  1125  0060                     	ds	5
  1126  0065                     ?_Temp_Conv:	
  1127  0065                     ?_Pres_Conv:	
  1128                           ; 2 bytes @ 0x45
  1129                           
  1130  0065                     Temp_Conv@V2T:	
  1131                           ; 2 bytes @ 0x45
  1132                           
  1133  0065                     Pres_Conv@V2P:	
  1134                           ; 2 bytes @ 0x45
  1135                           
  1136                           
  1137                           ; 2 bytes @ 0x45
  1138  0065                     	ds	2
  1139  0067                     Temp_Conv@temp:	
  1140  0067                     Pres_Conv@pres:	
  1141                           ; 2 bytes @ 0x47
  1142                           
  1143                           
  1144                           ; 2 bytes @ 0x47
  1145  0067                     	ds	2
  1146  0069                     ??_main:	
  1147                           
  1148                           ; 1 bytes @ 0x49
  1149  0069                     	ds	2
  1150                           
  1151                           	psect	maintext
  1152  04D8                     __pmaintext:	
  1153 ;;
  1154 ;;Main: autosize = 0, tempsize = 2, incstack = 0, save=0
  1155 ;;
  1156 ;; *************** function _main *****************
  1157 ;; Defined at:
  1158 ;;		line 20 in file "TX_main.c"
  1159 ;; Parameters:    Size  Location     Type
  1160 ;;		None
  1161 ;; Auto vars:     Size  Location     Type
  1162 ;;  x               2   68[BANK1 ] int 
  1163 ;;  wind_avg       58    0[BANK1 ] int [29]
  1164 ;;  wind_mph        2   66[BANK1 ] int 
  1165 ;;  pressure        2   64[BANK1 ] int 
  1166 ;;  temperature     2   62[BANK1 ] int 
  1167 ;; Return value:  Size  Location     Type
  1168 ;;                  1    wreg      void 
  1169 ;; Registers used:
  1170 ;;		wreg, fsr0l, fsr0h, fsr1l, fsr1h, status,2, status,0, pclath, cstack
  1171 ;; Tracked objects:
  1172 ;;		On entry : B1F/0
  1173 ;;		On exit  : 0/0
  1174 ;;		Unchanged: 0/0
  1175 ;; Data sizes:     COMMON   BANK0   BANK1   BANK2   BANK3   BANK4   BANK5   BANK6
  1176 ;;      Params:         0       0       0       0       0       0       0       0
  1177 ;;      Locals:         0       0      70       0       0       0       0       0
  1178 ;;      Temps:          0       2       0       0       0       0       0       0
  1179 ;;      Totals:         0       2      70       0       0       0       0       0
  1180 ;;Total ram usage:       72 bytes
  1181 ;; Hardware stack levels required when called:    4
  1182 ;; This function calls:
  1183 ;;		_ADC_Init
  1184 ;;		_ADC_Read
  1185 ;;		_ConfigInterrupts
  1186 ;;		_ConfigTimers
  1187 ;;		_Pres_Conv
  1188 ;;		_Send_DTMF_pack
  1189 ;;		_Temp_Conv
  1190 ;;		___awdiv
  1191 ;;		___fltol
  1192 ;;		___xxtofl
  1193 ;; This function is called by:
  1194 ;;		Startup code after reset
  1195 ;; This function uses a non-reentrant model
  1196 ;;
  1197                           
  1198                           
  1199                           ;psect for function _main
  1200  04D8                     _main:	
  1201  04D8                     l2455:	
  1202                           ;incstack = 0
  1203                           ; Regs used in _main: [wreg-fsr1h+status,2+status,0+pclath+cstack]
  1204                           
  1205                           
  1206                           ;TX_main.c: 22:     TRISC = 0;
  1207  04D8  0021               	movlb	1	; select bank1
  1208  04D9  018E               	clrf	14	;volatile
  1209                           
  1210                           ;TX_main.c: 23:     ANSELC = 0;
  1211  04DA  0023               	movlb	3	; select bank3
  1212  04DB  018E               	clrf	14	;volatile
  1213  04DC                     l2457:	
  1214                           
  1215                           ;TX_main.c: 24:     TRISA = 0b00000100;
  1216  04DC  3004               	movlw	4
  1217  04DD  0021               	movlb	1	; select bank1
  1218  04DE  008C               	movwf	12	;volatile
  1219  04DF                     l2459:	
  1220                           
  1221                           ;TX_main.c: 25:     ANSELA = 0;
  1222  04DF  0023               	movlb	3	; select bank3
  1223  04E0  018C               	clrf	12	;volatile
  1224                           
  1225                           ;TX_main.c: 26:     TRISB = 0b11000000;
  1226  04E1  30C0               	movlw	192
  1227  04E2  0021               	movlb	1	; select bank1
  1228  04E3  008D               	movwf	13	;volatile
  1229                           
  1230                           ;TX_main.c: 27:     ANSELB =0b11000000;
  1231  04E4  30C0               	movlw	192
  1232  04E5  0023               	movlb	3	; select bank3
  1233  04E6  008D               	movwf	13	;volatile
  1234  04E7                     l2461:	
  1235                           
  1236                           ;TX_main.c: 28:     PORTB = 0x00;
  1237  04E7  0020               	movlb	0	; select bank0
  1238  04E8  018D               	clrf	13	;volatile
  1239  04E9                     l2463:	
  1240                           
  1241                           ;TX_main.c: 30:     const int TX_rate = 30;;TX_main.c: 31:     ConfigInterrupts();
  1242  04E9  318D  25C9  3184   	fcall	_ConfigInterrupts
  1243  04EC                     l2465:	
  1244                           
  1245                           ;TX_main.c: 32:     ConfigTimers();
  1246  04EC  318D  25D6  3184   	fcall	_ConfigTimers
  1247  04EF                     l2467:	
  1248                           
  1249                           ;TX_main.c: 33:     ADC_Init();
  1250  04EF  318D  25C1  3184   	fcall	_ADC_Init
  1251  04F2                     l2469:	
  1252                           
  1253                           ;TX_main.c: 34:     _delay((unsigned long)((3000)*(1000000/4000.0)));
  1254  04F2  3004               	movlw	4
  1255  04F3  0020               	movlb	0	; select bank0
  1256  04F4  00EA               	movwf	??_main+1
  1257  04F5  30CF               	movlw	207
  1258  04F6  00E9               	movwf	??_main
  1259  04F7  3001               	movlw	1
  1260  04F8                     u2997:	
  1261  04F8  0B89               	decfsz	9,f
  1262  04F9  2CF8               	goto	u2997
  1263  04FA  0BE9               	decfsz	??_main,f
  1264  04FB  2CF8               	goto	u2997
  1265  04FC  0BEA               	decfsz	??_main+1,f
  1266  04FD  2CF8               	goto	u2997
  1267  04FE  3200               	nop2
  1268  04FF                     l2471:	
  1269  04FF                     l2473:	
  1270                           
  1271                           ;TX_main.c: 38:         int wind_mph = 0;
  1272  04FF  0021               	movlb	1	; select bank1
  1273  0500  01E2               	clrf	main@wind_mph^(0+128)
  1274  0501  01E3               	clrf	(main@wind_mph+1)^(0+128)
  1275  0502                     l2475:	
  1276  0502                     l2477:	
  1277                           
  1278                           ;TX_main.c: 40:         int wind_avg[29] = {0};
  1279  0502  30A0               	movlw	low main@wind_avg
  1280  0503  0086               	movwf	6
  1281  0504  3000               	movlw	high main@wind_avg
  1282  0505  0087               	movwf	7
  1283  0506  303A               	movlw	58
  1284  0507  0020               	movlb	0	; select bank0
  1285  0508  00E9               	movwf	??_main
  1286  0509  3000               	movlw	0
  1287  050A                     u2960:	
  1288  050A  001E               	movwi fsr1++
  1289  050B  0BE9               	decfsz	??_main,f
  1290  050C  2D0A               	goto	u2960
  1291  050D                     l2479:	
  1292                           
  1293                           ;TX_main.c: 43:         for(int x = 0; x <= TX_rate; x++){
  1294  050D  0021               	movlb	1	; select bank1
  1295  050E  01E4               	clrf	main@x^(0+128)
  1296  050F  01E5               	clrf	(main@x+1)^(0+128)
  1297  0510                     l2485:	
  1298                           
  1299                           ;TX_main.c: 44:             if(wind_time_high == 0 ){
  1300  0510  0021               	movlb	1	; select bank1
  1301  0511  086A               	movf	_wind_time_high^(0+128),w
  1302  0512  046B               	iorwf	(_wind_time_high+1)^(0+128),w
  1303  0513  1D03               	btfss	3,2
  1304  0514  2D16               	goto	u2971
  1305  0515  2D17               	goto	u2970
  1306  0516                     u2971:	
  1307  0516  2D37               	goto	l2489
  1308  0517                     u2970:	
  1309  0517                     l2487:	
  1310                           
  1311                           ;TX_main.c: 45:                wind_avg[x] = 1789 / ( wind_time_low * 4 ) ;
  1312  0517  086D               	movf	(_wind_time_low+1)^(0+128),w
  1313  0518  0020               	movlb	0	; select bank0
  1314  0519  00EA               	movwf	??_main+1
  1315  051A  0021               	movlb	1	; select bank1
  1316  051B  086C               	movf	_wind_time_low^(0+128),w
  1317  051C  0020               	movlb	0	; select bank0
  1318  051D  00E9               	movwf	??_main
  1319  051E  35E9               	lslf	??_main,f
  1320  051F  0DEA               	rlf	??_main+1,f
  1321  0520  35E9               	lslf	??_main,f
  1322  0521  0DEA               	rlf	??_main+1,f
  1323  0522  0869               	movf	??_main,w
  1324  0523  00F2               	movwf	___awdiv@divisor
  1325  0524  086A               	movf	??_main+1,w
  1326  0525  00F3               	movwf	___awdiv@divisor+1
  1327  0526  30FD               	movlw	253
  1328  0527  00F4               	movwf	___awdiv@dividend
  1329  0528  3006               	movlw	6
  1330  0529  00F5               	movwf	___awdiv@dividend+1
  1331  052A  318E  26BF  3184   	fcall	___awdiv
  1332  052D  0021               	movlb	1	; select bank1
  1333  052E  3564               	lslf	main@x^(0+128),w
  1334  052F  3EA0               	addlw	(low (main@wind_avg| 0))& (0+255)
  1335  0530  0086               	movwf	6
  1336  0531  0187               	clrf	7
  1337  0532  0872               	movf	?___awdiv,w
  1338  0533  3FC0               	movwi [0]fsr1
  1339  0534  0873               	movf	?___awdiv+1,w
  1340  0535  3FC1               	movwi [1]fsr1
  1341                           
  1342                           ;TX_main.c: 46:             }
  1343  0536  2D3E               	goto	l134
  1344  0537                     l2489:	
  1345  0537  3564               	lslf	main@x^(0+128),w
  1346  0538  3EA0               	addlw	(low (main@wind_avg| 0))& (0+255)
  1347  0539  0086               	movwf	6
  1348  053A  0187               	clrf	7
  1349  053B  3000               	movlw	0
  1350  053C  3FC0               	movwi [0]fsr1
  1351  053D  3FC1               	movwi [1]fsr1
  1352  053E                     l134:	
  1353                           
  1354                           ;TX_main.c: 48:             wind_mph += wind_avg[x];
  1355  053E  3564               	lslf	main@x^(0+128),w
  1356  053F  3EA0               	addlw	(low (main@wind_avg| 0))& (0+255)
  1357  0540  0086               	movwf	6
  1358  0541  0187               	clrf	7
  1359  0542  3F40               	moviw [0]fsr1
  1360  0543  0020               	movlb	0	; select bank0
  1361  0544  00E9               	movwf	??_main
  1362  0545  3F41               	moviw [1]fsr1
  1363  0546  00EA               	movwf	??_main+1
  1364  0547  0869               	movf	??_main,w
  1365  0548  0021               	movlb	1	; select bank1
  1366  0549  07E2               	addwf	main@wind_mph^(0+128),f
  1367  054A  0020               	movlb	0	; select bank0
  1368  054B  086A               	movf	??_main+1,w
  1369  054C  0021               	movlb	1	; select bank1
  1370  054D  3DE3               	addwfc	(main@wind_mph+1)^(0+128),f
  1371  054E                     l2491:	
  1372                           
  1373                           ;TX_main.c: 49:             RB4 = 1;
  1374  054E  0020               	movlb	0	; select bank0
  1375  054F  160D               	bsf	13,4	;volatile
  1376  0550                     l2493:	
  1377                           
  1378                           ;TX_main.c: 50:             _delay((unsigned long)((500)*(1000000/4000.0)));
  1379  0550  30A3               	movlw	163
  1380  0551  0020               	movlb	0	; select bank0
  1381  0552  00E9               	movwf	??_main
  1382  0553  3055               	movlw	85
  1383  0554                     u3007:	
  1384  0554  0B89               	decfsz	9,f
  1385  0555  2D54               	goto	u3007
  1386  0556  0BE9               	decfsz	??_main,f
  1387  0557  2D54               	goto	u3007
  1388  0558                     l2495:	
  1389                           
  1390                           ;TX_main.c: 51:             RB4 = 0;
  1391  0558  0020               	movlb	0	; select bank0
  1392  0559  120D               	bcf	13,4	;volatile
  1393  055A                     l2497:	
  1394                           
  1395                           ;TX_main.c: 52:             _delay((unsigned long)((500)*(1000000/4000.0)));
  1396  055A  30A3               	movlw	163
  1397  055B  0020               	movlb	0	; select bank0
  1398  055C  00E9               	movwf	??_main
  1399  055D  3055               	movlw	85
  1400  055E                     u3017:	
  1401  055E  0B89               	decfsz	9,f
  1402  055F  2D5E               	goto	u3017
  1403  0560  0BE9               	decfsz	??_main,f
  1404  0561  2D5E               	goto	u3017
  1405  0562                     l2499:	
  1406                           
  1407                           ;TX_main.c: 53:         }
  1408  0562  3001               	movlw	1
  1409  0563  0021               	movlb	1	; select bank1
  1410  0564  07E4               	addwf	main@x^(0+128),f
  1411  0565  3000               	movlw	0
  1412  0566  3DE5               	addwfc	(main@x+1)^(0+128),f
  1413  0567                     l2501:	
  1414  0567  0865               	movf	(main@x+1)^(0+128),w
  1415  0568  3A80               	xorlw	128
  1416  0569  0020               	movlb	0	; select bank0
  1417  056A  00E9               	movwf	??_main
  1418  056B  3080               	movlw	128
  1419  056C  0269               	subwf	??_main,w
  1420  056D  1D03               	skipz
  1421  056E  2D72               	goto	u2985
  1422  056F  301F               	movlw	31
  1423  0570  0021               	movlb	1	; select bank1
  1424  0571  0264               	subwf	main@x^(0+128),w
  1425  0572                     u2985:	
  1426  0572  1C03               	skipc
  1427  0573  2D75               	goto	u2981
  1428  0574  2D76               	goto	u2980
  1429  0575                     u2981:	
  1430  0575  2D10               	goto	l2485
  1431  0576                     u2980:	
  1432  0576                     l2503:	
  1433                           
  1434                           ;TX_main.c: 54:         wind_mph = wind_mph / TX_rate;
  1435  0576  301E               	movlw	30
  1436  0577  00F2               	movwf	___awdiv@divisor
  1437  0578  3000               	movlw	0
  1438  0579  00F3               	movwf	___awdiv@divisor+1
  1439  057A  0021               	movlb	1	; select bank1
  1440  057B  0863               	movf	(main@wind_mph+1)^(0+128),w
  1441  057C  00F5               	movwf	___awdiv@dividend+1
  1442  057D  0862               	movf	main@wind_mph^(0+128),w
  1443  057E  00F4               	movwf	___awdiv@dividend
  1444  057F  318E  26BF  3184   	fcall	___awdiv
  1445  0582  0873               	movf	?___awdiv+1,w
  1446  0583  0021               	movlb	1	; select bank1
  1447  0584  00E3               	movwf	(main@wind_mph+1)^(0+128)
  1448  0585  0872               	movf	?___awdiv,w
  1449  0586  00E2               	movwf	main@wind_mph^(0+128)
  1450                           
  1451                           ;TX_main.c: 57:         Dig_val = ADC_Read(14);
  1452  0587  300E               	movlw	14
  1453  0588  00F2               	movwf	ADC_Read@channel
  1454  0589  3000               	movlw	0
  1455  058A  00F3               	movwf	ADC_Read@channel+1
  1456  058B  318D  25E5  3184   	fcall	_ADC_Read
  1457  058E  0872               	movf	?_ADC_Read,w
  1458  058F  0020               	movlb	0	; select bank0
  1459  0590  00A0               	movwf	___xxtofl@val
  1460  0591  0873               	movf	?_ADC_Read+1,w
  1461  0592  00A1               	movwf	___xxtofl@val+1
  1462  0593  0D89               	rlf	9,f
  1463  0594  3B89               	subwfb	9,f
  1464  0595  0989               	comf	9,f
  1465  0596  00A2               	movwf	___xxtofl@val+2
  1466  0597  00A3               	movwf	___xxtofl@val+3
  1467  0598  3001               	movlw	1
  1468  0599  3187  274F  3184   	fcall	___xxtofl
  1469  059C  0020               	movlb	0	; select bank0
  1470  059D  0823               	movf	?___xxtofl+3,w
  1471  059E  0021               	movlb	1	; select bank1
  1472  059F  00E9               	movwf	(_Dig_val+3)^(0+128)
  1473  05A0  0020               	movlb	0	; select bank0
  1474  05A1  0822               	movf	?___xxtofl+2,w
  1475  05A2  0021               	movlb	1	; select bank1
  1476  05A3  00E8               	movwf	(_Dig_val+2)^(0+128)
  1477  05A4  0020               	movlb	0	; select bank0
  1478  05A5  0821               	movf	?___xxtofl+1,w
  1479  05A6  0021               	movlb	1	; select bank1
  1480  05A7  00E7               	movwf	(_Dig_val+1)^(0+128)
  1481  05A8  0020               	movlb	0	; select bank0
  1482  05A9  0820               	movf	?___xxtofl,w
  1483  05AA  0021               	movlb	1	; select bank1
  1484  05AB  00E6               	movwf	_Dig_val^(0+128)
  1485                           
  1486                           ;TX_main.c: 58:         temperature = Temp_Conv(Dig_val);
  1487  05AC  0869               	movf	(_Dig_val+3)^(0+128),w
  1488  05AD  0020               	movlb	0	; select bank0
  1489  05AE  00DF               	movwf	___fltol@f1+3
  1490  05AF  0021               	movlb	1	; select bank1
  1491  05B0  0868               	movf	(_Dig_val+2)^(0+128),w
  1492  05B1  0020               	movlb	0	; select bank0
  1493  05B2  00DE               	movwf	___fltol@f1+2
  1494  05B3  0021               	movlb	1	; select bank1
  1495  05B4  0867               	movf	(_Dig_val+1)^(0+128),w
  1496  05B5  0020               	movlb	0	; select bank0
  1497  05B6  00DD               	movwf	___fltol@f1+1
  1498  05B7  0021               	movlb	1	; select bank1
  1499  05B8  0866               	movf	_Dig_val^(0+128),w
  1500  05B9  0020               	movlb	0	; select bank0
  1501  05BA  00DC               	movwf	___fltol@f1
  1502  05BB  318F  278B  3184   	fcall	___fltol
  1503  05BE  0020               	movlb	0	; select bank0
  1504  05BF  085D               	movf	?___fltol+1,w
  1505  05C0  0021               	movlb	1	; select bank1
  1506  05C1  00DB               	movwf	(_main$975+1)^(0+128)
  1507  05C2  0020               	movlb	0	; select bank0
  1508  05C3  085C               	movf	?___fltol,w
  1509  05C4  0021               	movlb	1	; select bank1
  1510  05C5  00DA               	movwf	_main$975^(0+128)
  1511                           
  1512                           ;TX_main.c: 58:         temperature = Temp_Conv(Dig_val);
  1513  05C6  085B               	movf	(_main$975+1)^(0+128),w
  1514  05C7  0020               	movlb	0	; select bank0
  1515  05C8  00E6               	movwf	Temp_Conv@V2T+1
  1516  05C9  0021               	movlb	1	; select bank1
  1517  05CA  085A               	movf	_main$975^(0+128),w
  1518  05CB  0020               	movlb	0	; select bank0
  1519  05CC  00E5               	movwf	Temp_Conv@V2T
  1520  05CD  318E  2673  3184   	fcall	_Temp_Conv
  1521  05D0  0020               	movlb	0	; select bank0
  1522  05D1  0866               	movf	?_Temp_Conv+1,w
  1523  05D2  0021               	movlb	1	; select bank1
  1524  05D3  00DF               	movwf	(main@temperature+1)^(0+128)
  1525  05D4  0020               	movlb	0	; select bank0
  1526  05D5  0865               	movf	?_Temp_Conv,w
  1527  05D6  0021               	movlb	1	; select bank1
  1528  05D7  00DE               	movwf	main@temperature^(0+128)
  1529                           
  1530                           ;TX_main.c: 61:         Dig_val = ADC_Read(15);
  1531  05D8  300F               	movlw	15
  1532  05D9  00F2               	movwf	ADC_Read@channel
  1533  05DA  3000               	movlw	0
  1534  05DB  00F3               	movwf	ADC_Read@channel+1
  1535  05DC  318D  25E5  3184   	fcall	_ADC_Read
  1536  05DF  0872               	movf	?_ADC_Read,w
  1537  05E0  0020               	movlb	0	; select bank0
  1538  05E1  00A0               	movwf	___xxtofl@val
  1539  05E2  0873               	movf	?_ADC_Read+1,w
  1540  05E3  00A1               	movwf	___xxtofl@val+1
  1541  05E4  0D89               	rlf	9,f
  1542  05E5  3B89               	subwfb	9,f
  1543  05E6  0989               	comf	9,f
  1544  05E7  00A2               	movwf	___xxtofl@val+2
  1545  05E8  00A3               	movwf	___xxtofl@val+3
  1546  05E9  3001               	movlw	1
  1547  05EA  3187  274F  3184   	fcall	___xxtofl
  1548  05ED  0020               	movlb	0	; select bank0
  1549  05EE  0823               	movf	?___xxtofl+3,w
  1550  05EF  0021               	movlb	1	; select bank1
  1551  05F0  00E9               	movwf	(_Dig_val+3)^(0+128)
  1552  05F1  0020               	movlb	0	; select bank0
  1553  05F2  0822               	movf	?___xxtofl+2,w
  1554  05F3  0021               	movlb	1	; select bank1
  1555  05F4  00E8               	movwf	(_Dig_val+2)^(0+128)
  1556  05F5  0020               	movlb	0	; select bank0
  1557  05F6  0821               	movf	?___xxtofl+1,w
  1558  05F7  0021               	movlb	1	; select bank1
  1559  05F8  00E7               	movwf	(_Dig_val+1)^(0+128)
  1560  05F9  0020               	movlb	0	; select bank0
  1561  05FA  0820               	movf	?___xxtofl,w
  1562  05FB  0021               	movlb	1	; select bank1
  1563  05FC  00E6               	movwf	_Dig_val^(0+128)
  1564                           
  1565                           ;TX_main.c: 62:         pressure = Pres_Conv(Dig_val);
  1566  05FD  0869               	movf	(_Dig_val+3)^(0+128),w
  1567  05FE  0020               	movlb	0	; select bank0
  1568  05FF  00DF               	movwf	___fltol@f1+3
  1569  0600  0021               	movlb	1	; select bank1
  1570  0601  0868               	movf	(_Dig_val+2)^(0+128),w
  1571  0602  0020               	movlb	0	; select bank0
  1572  0603  00DE               	movwf	___fltol@f1+2
  1573  0604  0021               	movlb	1	; select bank1
  1574  0605  0867               	movf	(_Dig_val+1)^(0+128),w
  1575  0606  0020               	movlb	0	; select bank0
  1576  0607  00DD               	movwf	___fltol@f1+1
  1577  0608  0021               	movlb	1	; select bank1
  1578  0609  0866               	movf	_Dig_val^(0+128),w
  1579  060A  0020               	movlb	0	; select bank0
  1580  060B  00DC               	movwf	___fltol@f1
  1581  060C  318F  278B  3184   	fcall	___fltol
  1582  060F  0020               	movlb	0	; select bank0
  1583  0610  085D               	movf	?___fltol+1,w
  1584  0611  0021               	movlb	1	; select bank1
  1585  0612  00DD               	movwf	(_main$976+1)^(0+128)
  1586  0613  0020               	movlb	0	; select bank0
  1587  0614  085C               	movf	?___fltol,w
  1588  0615  0021               	movlb	1	; select bank1
  1589  0616  00DC               	movwf	_main$976^(0+128)
  1590                           
  1591                           ;TX_main.c: 62:         pressure = Pres_Conv(Dig_val);
  1592  0617  085D               	movf	(_main$976+1)^(0+128),w
  1593  0618  0020               	movlb	0	; select bank0
  1594  0619  00E6               	movwf	Pres_Conv@V2P+1
  1595  061A  0021               	movlb	1	; select bank1
  1596  061B  085C               	movf	_main$976^(0+128),w
  1597  061C  0020               	movlb	0	; select bank0
  1598  061D  00E5               	movwf	Pres_Conv@V2P
  1599  061E  318E  2627  3184   	fcall	_Pres_Conv
  1600  0621  0020               	movlb	0	; select bank0
  1601  0622  0866               	movf	?_Pres_Conv+1,w
  1602  0623  0021               	movlb	1	; select bank1
  1603  0624  00E1               	movwf	(main@pressure+1)^(0+128)
  1604  0625  0020               	movlb	0	; select bank0
  1605  0626  0865               	movf	?_Pres_Conv,w
  1606  0627  0021               	movlb	1	; select bank1
  1607  0628  00E0               	movwf	main@pressure^(0+128)
  1608  0629                     l2505:	
  1609                           
  1610                           ;TX_main.c: 66:         RB5 = 1;
  1611  0629  0020               	movlb	0	; select bank0
  1612  062A  168D               	bsf	13,5	;volatile
  1613  062B                     l2507:	
  1614                           
  1615                           ;TX_main.c: 67:         Send_DTMF_pack(wind_mph, temperature, pressure);
  1616  062B  0021               	movlb	1	; select bank1
  1617  062C  0863               	movf	(main@wind_mph+1)^(0+128),w
  1618  062D  00F5               	movwf	Send_DTMF_pack@wind+1
  1619  062E  0862               	movf	main@wind_mph^(0+128),w
  1620  062F  00F4               	movwf	Send_DTMF_pack@wind
  1621  0630  085F               	movf	(main@temperature+1)^(0+128),w
  1622  0631  00F7               	movwf	Send_DTMF_pack@temperature+1
  1623  0632  085E               	movf	main@temperature^(0+128),w
  1624  0633  00F6               	movwf	Send_DTMF_pack@temperature
  1625  0634  0861               	movf	(main@pressure+1)^(0+128),w
  1626  0635  00F9               	movwf	Send_DTMF_pack@press+1
  1627  0636  0860               	movf	main@pressure^(0+128),w
  1628  0637  00F8               	movwf	Send_DTMF_pack@press
  1629  0638  3186  2640  3184   	fcall	_Send_DTMF_pack
  1630  063B                     l2509:	
  1631                           
  1632                           ;TX_main.c: 68:         RB5 = 0;
  1633  063B  0020               	movlb	0	; select bank0
  1634  063C  128D               	bcf	13,5	;volatile
  1635  063D  2CFF               	goto	l2471
  1636  063E  3180  2831         	ljmp	start
  1637  0640                     __end_of_main:	
  1638                           
  1639                           	psect	text1
  1640  0EBF                     __ptext1:	
  1641 ;; *************** function ___awdiv *****************
  1642 ;; Defined at:
  1643 ;;		line 5 in file "D:\Apps\Xc8\pic\sources\c99\common\awdiv.c"
  1644 ;; Parameters:    Size  Location     Type
  1645 ;;  divisor         2    2[COMMON] int 
  1646 ;;  dividend        2    4[COMMON] int 
  1647 ;; Auto vars:     Size  Location     Type
  1648 ;;  quotient        2    2[BANK0 ] int 
  1649 ;;  sign            1    1[BANK0 ] unsigned char 
  1650 ;;  counter         1    0[BANK0 ] unsigned char 
  1651 ;; Return value:  Size  Location     Type
  1652 ;;                  2    2[COMMON] int 
  1653 ;; Registers used:
  1654 ;;		wreg, status,2, status,0
  1655 ;; Tracked objects:
  1656 ;;		On entry : 0/0
  1657 ;;		On exit  : 0/0
  1658 ;;		Unchanged: 0/0
  1659 ;; Data sizes:     COMMON   BANK0   BANK1   BANK2   BANK3   BANK4   BANK5   BANK6
  1660 ;;      Params:         4       0       0       0       0       0       0       0
  1661 ;;      Locals:         0       4       0       0       0       0       0       0
  1662 ;;      Temps:          1       0       0       0       0       0       0       0
  1663 ;;      Totals:         5       4       0       0       0       0       0       0
  1664 ;;Total ram usage:        9 bytes
  1665 ;; Hardware stack levels used:    1
  1666 ;; Hardware stack levels required when called:    1
  1667 ;; This function calls:
  1668 ;;		Nothing
  1669 ;; This function is called by:
  1670 ;;		_main
  1671 ;; This function uses a non-reentrant model
  1672 ;;
  1673                           
  1674                           
  1675                           ;psect for function ___awdiv
  1676  0EBF                     ___awdiv:	
  1677  0EBF                     l2411:	
  1678                           ;incstack = 0
  1679                           ; Regs used in ___awdiv: [wreg+status,2+status,0]
  1680                           
  1681  0EBF  0020               	movlb	0	; select bank0
  1682  0EC0  01A1               	clrf	___awdiv@sign
  1683  0EC1                     l2413:	
  1684  0EC1  1FF3               	btfss	___awdiv@divisor+1,7
  1685  0EC2  2EC4               	goto	u2861
  1686  0EC3  2EC5               	goto	u2860
  1687  0EC4                     u2861:	
  1688  0EC4  2ECC               	goto	l2419
  1689  0EC5                     u2860:	
  1690  0EC5                     l2415:	
  1691  0EC5  09F2               	comf	___awdiv@divisor,f
  1692  0EC6  09F3               	comf	___awdiv@divisor+1,f
  1693  0EC7  0AF2               	incf	___awdiv@divisor,f
  1694  0EC8  1903               	skipnz
  1695  0EC9  0AF3               	incf	___awdiv@divisor+1,f
  1696  0ECA                     l2417:	
  1697  0ECA  01A1               	clrf	___awdiv@sign
  1698  0ECB  0AA1               	incf	___awdiv@sign,f
  1699  0ECC                     l2419:	
  1700  0ECC  1FF5               	btfss	___awdiv@dividend+1,7
  1701  0ECD  2ECF               	goto	u2871
  1702  0ECE  2ED0               	goto	u2870
  1703  0ECF                     u2871:	
  1704  0ECF  2ED9               	goto	l2425
  1705  0ED0                     u2870:	
  1706  0ED0                     l2421:	
  1707  0ED0  09F4               	comf	___awdiv@dividend,f
  1708  0ED1  09F5               	comf	___awdiv@dividend+1,f
  1709  0ED2  0AF4               	incf	___awdiv@dividend,f
  1710  0ED3  1903               	skipnz
  1711  0ED4  0AF5               	incf	___awdiv@dividend+1,f
  1712  0ED5                     l2423:	
  1713  0ED5  3001               	movlw	1
  1714  0ED6  00F6               	movwf	??___awdiv
  1715  0ED7  0876               	movf	??___awdiv,w
  1716  0ED8  06A1               	xorwf	___awdiv@sign,f
  1717  0ED9                     l2425:	
  1718  0ED9  01A2               	clrf	___awdiv@quotient
  1719  0EDA  01A3               	clrf	___awdiv@quotient+1
  1720  0EDB                     l2427:	
  1721  0EDB  0872               	movf	___awdiv@divisor,w
  1722  0EDC  0473               	iorwf	___awdiv@divisor+1,w
  1723  0EDD  1903               	btfsc	3,2
  1724  0EDE  2EE0               	goto	u2881
  1725  0EDF  2EE1               	goto	u2880
  1726  0EE0                     u2881:	
  1727  0EE0  2F10               	goto	l2447
  1728  0EE1                     u2880:	
  1729  0EE1                     l2429:	
  1730  0EE1  01A0               	clrf	___awdiv@counter
  1731  0EE2  0AA0               	incf	___awdiv@counter,f
  1732  0EE3  2EED               	goto	l2435
  1733  0EE4                     l2431:	
  1734  0EE4  3001               	movlw	1
  1735  0EE5                     u2895:	
  1736  0EE5  35F2               	lslf	___awdiv@divisor,f
  1737  0EE6  0DF3               	rlf	___awdiv@divisor+1,f
  1738  0EE7  0B89               	decfsz	9,f
  1739  0EE8  2EE5               	goto	u2895
  1740  0EE9                     l2433:	
  1741  0EE9  3001               	movlw	1
  1742  0EEA  00F6               	movwf	??___awdiv
  1743  0EEB  0876               	movf	??___awdiv,w
  1744  0EEC  07A0               	addwf	___awdiv@counter,f
  1745  0EED                     l2435:	
  1746  0EED  1FF3               	btfss	___awdiv@divisor+1,7
  1747  0EEE  2EF0               	goto	u2901
  1748  0EEF  2EF1               	goto	u2900
  1749  0EF0                     u2901:	
  1750  0EF0  2EE4               	goto	l2431
  1751  0EF1                     u2900:	
  1752  0EF1                     l2437:	
  1753  0EF1  3001               	movlw	1
  1754  0EF2                     u2915:	
  1755  0EF2  35A2               	lslf	___awdiv@quotient,f
  1756  0EF3  0DA3               	rlf	___awdiv@quotient+1,f
  1757  0EF4  0B89               	decfsz	9,f
  1758  0EF5  2EF2               	goto	u2915
  1759  0EF6  0873               	movf	___awdiv@divisor+1,w
  1760  0EF7  0275               	subwf	___awdiv@dividend+1,w
  1761  0EF8  1D03               	skipz
  1762  0EF9  2EFC               	goto	u2925
  1763  0EFA  0872               	movf	___awdiv@divisor,w
  1764  0EFB  0274               	subwf	___awdiv@dividend,w
  1765  0EFC                     u2925:	
  1766  0EFC  1C03               	skipc
  1767  0EFD  2EFF               	goto	u2921
  1768  0EFE  2F00               	goto	u2920
  1769  0EFF                     u2921:	
  1770  0EFF  2F05               	goto	l2443
  1771  0F00                     u2920:	
  1772  0F00                     l2439:	
  1773  0F00  0872               	movf	___awdiv@divisor,w
  1774  0F01  02F4               	subwf	___awdiv@dividend,f
  1775  0F02  0873               	movf	___awdiv@divisor+1,w
  1776  0F03  3BF5               	subwfb	___awdiv@dividend+1,f
  1777  0F04                     l2441:	
  1778  0F04  1422               	bsf	___awdiv@quotient,0
  1779  0F05                     l2443:	
  1780  0F05  3001               	movlw	1
  1781  0F06                     u2935:	
  1782  0F06  36F3               	lsrf	___awdiv@divisor+1,f
  1783  0F07  0CF2               	rrf	___awdiv@divisor,f
  1784  0F08  0B89               	decfsz	9,f
  1785  0F09  2F06               	goto	u2935
  1786  0F0A                     l2445:	
  1787  0F0A  3001               	movlw	1
  1788  0F0B  02A0               	subwf	___awdiv@counter,f
  1789  0F0C  1D03               	btfss	3,2
  1790  0F0D  2F0F               	goto	u2941
  1791  0F0E  2F10               	goto	u2940
  1792  0F0F                     u2941:	
  1793  0F0F  2EF1               	goto	l2437
  1794  0F10                     u2940:	
  1795  0F10                     l2447:	
  1796  0F10  0821               	movf	___awdiv@sign,w
  1797  0F11  1903               	btfsc	3,2
  1798  0F12  2F14               	goto	u2951
  1799  0F13  2F15               	goto	u2950
  1800  0F14                     u2951:	
  1801  0F14  2F1A               	goto	l2451
  1802  0F15                     u2950:	
  1803  0F15                     l2449:	
  1804  0F15  09A2               	comf	___awdiv@quotient,f
  1805  0F16  09A3               	comf	___awdiv@quotient+1,f
  1806  0F17  0AA2               	incf	___awdiv@quotient,f
  1807  0F18  1903               	skipnz
  1808  0F19  0AA3               	incf	___awdiv@quotient+1,f
  1809  0F1A                     l2451:	
  1810  0F1A  0823               	movf	___awdiv@quotient+1,w
  1811  0F1B  00F3               	movwf	?___awdiv+1
  1812  0F1C  0822               	movf	___awdiv@quotient,w
  1813  0F1D  00F2               	movwf	?___awdiv
  1814  0F1E                     l456:	
  1815  0F1E  0008               	return
  1816  0F1F                     __end_of___awdiv:	
  1817                           
  1818                           	psect	text2
  1819  0E73                     __ptext2:	
  1820 ;; *************** function _Temp_Conv *****************
  1821 ;; Defined at:
  1822 ;;		line 33 in file "./ADC.h"
  1823 ;; Parameters:    Size  Location     Type
  1824 ;;  V2T             2   69[BANK0 ] int 
  1825 ;; Auto vars:     Size  Location     Type
  1826 ;;  temp            2   71[BANK0 ] int 
  1827 ;; Return value:  Size  Location     Type
  1828 ;;                  2   69[BANK0 ] int 
  1829 ;; Registers used:
  1830 ;;		wreg, status,2, status,0, pclath, cstack
  1831 ;; Tracked objects:
  1832 ;;		On entry : 0/0
  1833 ;;		On exit  : 0/0
  1834 ;;		Unchanged: 0/0
  1835 ;; Data sizes:     COMMON   BANK0   BANK1   BANK2   BANK3   BANK4   BANK5   BANK6
  1836 ;;      Params:         0       2       0       0       0       0       0       0
  1837 ;;      Locals:         0       2       0       0       0       0       0       0
  1838 ;;      Temps:          0       0       0       0       0       0       0       0
  1839 ;;      Totals:         0       4       0       0       0       0       0       0
  1840 ;;Total ram usage:        4 bytes
  1841 ;; Hardware stack levels used:    1
  1842 ;; Hardware stack levels required when called:    3
  1843 ;; This function calls:
  1844 ;;		___fladd
  1845 ;;		___flmul
  1846 ;;		___fltol
  1847 ;;		___xxtofl
  1848 ;; This function is called by:
  1849 ;;		_main
  1850 ;; This function uses a non-reentrant model
  1851 ;;
  1852                           
  1853                           
  1854                           ;psect for function _Temp_Conv
  1855  0E73                     _Temp_Conv:	
  1856  0E73                     l2399:	
  1857                           ;incstack = 0
  1858                           ; Regs used in _Temp_Conv: [wreg+status,2+status,0+pclath+cstack]
  1859                           
  1860                           
  1861                           ;./ADC.h: 34:     int temp = 0.28*V2T-62;
  1862  0E73  0020               	movlb	0	; select bank0
  1863  0E74  0865               	movf	Temp_Conv@V2T,w
  1864  0E75  00A0               	movwf	___xxtofl@val
  1865  0E76  0866               	movf	Temp_Conv@V2T+1,w
  1866  0E77  00A1               	movwf	___xxtofl@val+1
  1867  0E78  0D89               	rlf	9,f
  1868  0E79  3B89               	subwfb	9,f
  1869  0E7A  0989               	comf	9,f
  1870  0E7B  00A2               	movwf	___xxtofl@val+2
  1871  0E7C  00A3               	movwf	___xxtofl@val+3
  1872  0E7D  3001               	movlw	1
  1873  0E7E  3187  274F  318E   	fcall	___xxtofl
  1874  0E81  0020               	movlb	0	; select bank0
  1875  0E82  0823               	movf	?___xxtofl+3,w
  1876  0E83  00B5               	movwf	___flmul@a+3
  1877  0E84  0822               	movf	?___xxtofl+2,w
  1878  0E85  00B4               	movwf	___flmul@a+2
  1879  0E86  0821               	movf	?___xxtofl+1,w
  1880  0E87  00B3               	movwf	___flmul@a+1
  1881  0E88  0820               	movf	?___xxtofl,w
  1882  0E89  00B2               	movwf	___flmul@a
  1883  0E8A  303E               	movlw	62
  1884  0E8B  00B1               	movwf	___flmul@b+3
  1885  0E8C  308F               	movlw	143
  1886  0E8D  00B0               	movwf	___flmul@b+2
  1887  0E8E  305C               	movlw	92
  1888  0E8F  00AF               	movwf	___flmul@b+1
  1889  0E90  3029               	movlw	41
  1890  0E91  00AE               	movwf	___flmul@b
  1891  0E92  3180  2049  318E   	fcall	___flmul
  1892  0E95  0020               	movlb	0	; select bank0
  1893  0E96  0831               	movf	?___flmul+3,w
  1894  0E97  00CF               	movwf	___fladd@a+3
  1895  0E98  0830               	movf	?___flmul+2,w
  1896  0E99  00CE               	movwf	___fladd@a+2
  1897  0E9A  082F               	movf	?___flmul+1,w
  1898  0E9B  00CD               	movwf	___fladd@a+1
  1899  0E9C  082E               	movf	?___flmul,w
  1900  0E9D  00CC               	movwf	___fladd@a
  1901  0E9E  30C2               	movlw	194
  1902  0E9F  00CB               	movwf	___fladd@b+3
  1903  0EA0  3078               	movlw	120
  1904  0EA1  00CA               	movwf	___fladd@b+2
  1905  0EA2  3000               	movlw	0
  1906  0EA3  00C9               	movwf	___fladd@b+1
  1907  0EA4  3000               	movlw	0
  1908  0EA5  00C8               	movwf	___fladd@b
  1909  0EA6  3182  22A0  318E   	fcall	___fladd
  1910  0EA9  0020               	movlb	0	; select bank0
  1911  0EAA  084B               	movf	?___fladd+3,w
  1912  0EAB  00DF               	movwf	___fltol@f1+3
  1913  0EAC  084A               	movf	?___fladd+2,w
  1914  0EAD  00DE               	movwf	___fltol@f1+2
  1915  0EAE  0849               	movf	?___fladd+1,w
  1916  0EAF  00DD               	movwf	___fltol@f1+1
  1917  0EB0  0848               	movf	?___fladd,w
  1918  0EB1  00DC               	movwf	___fltol@f1
  1919  0EB2  318F  278B  318E   	fcall	___fltol
  1920  0EB5  0020               	movlb	0	; select bank0
  1921  0EB6  085D               	movf	?___fltol+1,w
  1922  0EB7  00E8               	movwf	Temp_Conv@temp+1
  1923  0EB8  085C               	movf	?___fltol,w
  1924  0EB9  00E7               	movwf	Temp_Conv@temp
  1925  0EBA                     l2401:	
  1926                           
  1927                           ;./ADC.h: 35:     return temp;
  1928  0EBA  0868               	movf	Temp_Conv@temp+1,w
  1929  0EBB  00E6               	movwf	?_Temp_Conv+1
  1930  0EBC  0867               	movf	Temp_Conv@temp,w
  1931  0EBD  00E5               	movwf	?_Temp_Conv
  1932  0EBE                     l110:	
  1933  0EBE  0008               	return
  1934  0EBF                     __end_of_Temp_Conv:	
  1935                           
  1936                           	psect	text3
  1937  0640                     __ptext3:	
  1938 ;; *************** function _Send_DTMF_pack *****************
  1939 ;; Defined at:
  1940 ;;		line 97 in file "./DTMF_encoding.h"
  1941 ;; Parameters:    Size  Location     Type
  1942 ;;  wind            2    4[COMMON] int 
  1943 ;;  temperature     2    6[COMMON] int 
  1944 ;;  press           2    8[COMMON] int 
  1945 ;; Auto vars:     Size  Location     Type
  1946 ;;  low             2    5[BANK0 ] int 
  1947 ;;  high            2    3[BANK0 ] int 
  1948 ;; Return value:  Size  Location     Type
  1949 ;;                  1    wreg      void 
  1950 ;; Registers used:
  1951 ;;		wreg, fsr0l, fsr0h, status,2, status,0, pclath, cstack
  1952 ;; Tracked objects:
  1953 ;;		On entry : 0/0
  1954 ;;		On exit  : 0/0
  1955 ;;		Unchanged: 0/0
  1956 ;; Data sizes:     COMMON   BANK0   BANK1   BANK2   BANK3   BANK4   BANK5   BANK6
  1957 ;;      Params:         6       0       0       0       0       0       0       0
  1958 ;;      Locals:         0       4       0       0       0       0       0       0
  1959 ;;      Temps:          0       3       0       0       0       0       0       0
  1960 ;;      Totals:         6       7       0       0       0       0       0       0
  1961 ;;Total ram usage:       13 bytes
  1962 ;; Hardware stack levels used:    1
  1963 ;; Hardware stack levels required when called:    2
  1964 ;; This function calls:
  1965 ;;		_nib_to_DTMF
  1966 ;; This function is called by:
  1967 ;;		_main
  1968 ;; This function uses a non-reentrant model
  1969 ;;
  1970                           
  1971                           
  1972                           ;psect for function _Send_DTMF_pack
  1973  0640                     _Send_DTMF_pack:	
  1974  0640                     l1901:	
  1975                           ;incstack = 0
  1976                           ; Regs used in _Send_DTMF_pack: [wreg-fsr0h+status,2+status,0+pclath+cstack]
  1977                           
  1978  0640                     l1903:	
  1979                           
  1980                           ;./DTMF_encoding.h: 99:      nib_to_DTMF(0x01);
  1981  0640  3001               	movlw	1
  1982  0641  00F2               	movwf	nib_to_DTMF@nib
  1983  0642  3000               	movlw	0
  1984  0643  00F3               	movwf	nib_to_DTMF@nib+1
  1985  0644  318F  271F  3186   	fcall	_nib_to_DTMF
  1986  0647                     l1905:	
  1987                           
  1988                           ;./DTMF_encoding.h: 100:      _delay((unsigned long)((500)*(1000000/4000.0)));
  1989  0647  30A3               	movlw	163
  1990  0648  0020               	movlb	0	; select bank0
  1991  0649  00A0               	movwf	??_Send_DTMF_pack
  1992  064A  3055               	movlw	85
  1993  064B                     u3027:	
  1994  064B  0B89               	decfsz	9,f
  1995  064C  2E4B               	goto	u3027
  1996  064D  0BA0               	decfsz	??_Send_DTMF_pack,f
  1997  064E  2E4B               	goto	u3027
  1998  064F                     l1907:	
  1999                           
  2000                           ;./DTMF_encoding.h: 101:      PORTC=0xFF;
  2001  064F  30FF               	movlw	255
  2002  0650  0020               	movlb	0	; select bank0
  2003  0651  008E               	movwf	14	;volatile
  2004  0652                     l1909:	
  2005                           
  2006                           ;./DTMF_encoding.h: 102:      _delay((unsigned long)((500)*(1000000/4000.0)));
  2007  0652  30A3               	movlw	163
  2008  0653  0020               	movlb	0	; select bank0
  2009  0654  00A0               	movwf	??_Send_DTMF_pack
  2010  0655  3055               	movlw	85
  2011  0656                     u3037:	
  2012  0656  0B89               	decfsz	9,f
  2013  0657  2E56               	goto	u3037
  2014  0658  0BA0               	decfsz	??_Send_DTMF_pack,f
  2015  0659  2E56               	goto	u3037
  2016  065A                     l1911:	
  2017                           
  2018                           ;./DTMF_encoding.h: 104:     high = temperature>>4 & 0x0F;
  2019  065A  0877               	movf	Send_DTMF_pack@temperature+1,w
  2020  065B  0020               	movlb	0	; select bank0
  2021  065C  00A1               	movwf	??_Send_DTMF_pack+1
  2022  065D  0876               	movf	Send_DTMF_pack@temperature,w
  2023  065E  00A0               	movwf	??_Send_DTMF_pack
  2024  065F  3004               	movlw	4
  2025  0660  00A2               	movwf	??_Send_DTMF_pack+2
  2026  0661                     u2135:	
  2027  0661  0D21               	rlf	??_Send_DTMF_pack+1,w
  2028  0662  0CA1               	rrf	??_Send_DTMF_pack+1,f
  2029  0663  0CA0               	rrf	??_Send_DTMF_pack,f
  2030  0664  0BA2               	decfsz	??_Send_DTMF_pack+2,f
  2031  0665  2E61               	goto	u2135
  2032  0666  300F               	movlw	15
  2033  0667  0520               	andwf	??_Send_DTMF_pack,w
  2034  0668  00A3               	movwf	Send_DTMF_pack@high
  2035  0669  3000               	movlw	0
  2036  066A  0521               	andwf	??_Send_DTMF_pack+1,w
  2037  066B  00A4               	movwf	Send_DTMF_pack@high+1
  2038  066C                     l1913:	
  2039                           
  2040                           ;./DTMF_encoding.h: 105:     nib_to_DTMF(high);
  2041  066C  0824               	movf	Send_DTMF_pack@high+1,w
  2042  066D  00F3               	movwf	nib_to_DTMF@nib+1
  2043  066E  0823               	movf	Send_DTMF_pack@high,w
  2044  066F  00F2               	movwf	nib_to_DTMF@nib
  2045  0670  318F  271F  3186   	fcall	_nib_to_DTMF
  2046  0673                     l1915:	
  2047                           
  2048                           ;./DTMF_encoding.h: 106:     _delay((unsigned long)((500)*(1000000/4000.0)));
  2049  0673  30A3               	movlw	163
  2050  0674  0020               	movlb	0	; select bank0
  2051  0675  00A0               	movwf	??_Send_DTMF_pack
  2052  0676  3055               	movlw	85
  2053  0677                     u3047:	
  2054  0677  0B89               	decfsz	9,f
  2055  0678  2E77               	goto	u3047
  2056  0679  0BA0               	decfsz	??_Send_DTMF_pack,f
  2057  067A  2E77               	goto	u3047
  2058  067B                     l1917:	
  2059                           
  2060                           ;./DTMF_encoding.h: 107:     PORTC=0xFF;
  2061  067B  30FF               	movlw	255
  2062  067C  0020               	movlb	0	; select bank0
  2063  067D  008E               	movwf	14	;volatile
  2064  067E                     l1919:	
  2065                           
  2066                           ;./DTMF_encoding.h: 108:     _delay((unsigned long)((500)*(1000000/4000.0)));
  2067  067E  30A3               	movlw	163
  2068  067F  0020               	movlb	0	; select bank0
  2069  0680  00A0               	movwf	??_Send_DTMF_pack
  2070  0681  3055               	movlw	85
  2071  0682                     u3057:	
  2072  0682  0B89               	decfsz	9,f
  2073  0683  2E82               	goto	u3057
  2074  0684  0BA0               	decfsz	??_Send_DTMF_pack,f
  2075  0685  2E82               	goto	u3057
  2076  0686                     l1921:	
  2077                           
  2078                           ;./DTMF_encoding.h: 109:     low = temperature & 0x0F;
  2079  0686  300F               	movlw	15
  2080  0687  0576               	andwf	Send_DTMF_pack@temperature,w
  2081  0688  0020               	movlb	0	; select bank0
  2082  0689  00A5               	movwf	Send_DTMF_pack@low
  2083  068A  3000               	movlw	0
  2084  068B  0577               	andwf	Send_DTMF_pack@temperature+1,w
  2085  068C  00A6               	movwf	Send_DTMF_pack@low+1
  2086  068D                     l1923:	
  2087                           
  2088                           ;./DTMF_encoding.h: 110:     nib_to_DTMF(low);
  2089  068D  0826               	movf	Send_DTMF_pack@low+1,w
  2090  068E  00F3               	movwf	nib_to_DTMF@nib+1
  2091  068F  0825               	movf	Send_DTMF_pack@low,w
  2092  0690  00F2               	movwf	nib_to_DTMF@nib
  2093  0691  318F  271F  3186   	fcall	_nib_to_DTMF
  2094  0694                     l1925:	
  2095                           
  2096                           ;./DTMF_encoding.h: 111:     _delay((unsigned long)((500)*(1000000/4000.0)));
  2097  0694  30A3               	movlw	163
  2098  0695  0020               	movlb	0	; select bank0
  2099  0696  00A0               	movwf	??_Send_DTMF_pack
  2100  0697  3055               	movlw	85
  2101  0698                     u3067:	
  2102  0698  0B89               	decfsz	9,f
  2103  0699  2E98               	goto	u3067
  2104  069A  0BA0               	decfsz	??_Send_DTMF_pack,f
  2105  069B  2E98               	goto	u3067
  2106  069C                     l1927:	
  2107                           
  2108                           ;./DTMF_encoding.h: 112:     PORTC=0xFF;
  2109  069C  30FF               	movlw	255
  2110  069D  0020               	movlb	0	; select bank0
  2111  069E  008E               	movwf	14	;volatile
  2112  069F                     l1929:	
  2113                           
  2114                           ;./DTMF_encoding.h: 113:     _delay((unsigned long)((500)*(1000000/4000.0)));
  2115  069F  30A3               	movlw	163
  2116  06A0  0020               	movlb	0	; select bank0
  2117  06A1  00A0               	movwf	??_Send_DTMF_pack
  2118  06A2  3055               	movlw	85
  2119  06A3                     u3077:	
  2120  06A3  0B89               	decfsz	9,f
  2121  06A4  2EA3               	goto	u3077
  2122  06A5  0BA0               	decfsz	??_Send_DTMF_pack,f
  2123  06A6  2EA3               	goto	u3077
  2124  06A7                     l1931:	
  2125                           
  2126                           ;./DTMF_encoding.h: 115:     high = wind>>4 & 0x0F;
  2127  06A7  0875               	movf	Send_DTMF_pack@wind+1,w
  2128  06A8  0020               	movlb	0	; select bank0
  2129  06A9  00A1               	movwf	??_Send_DTMF_pack+1
  2130  06AA  0874               	movf	Send_DTMF_pack@wind,w
  2131  06AB  00A0               	movwf	??_Send_DTMF_pack
  2132  06AC  3004               	movlw	4
  2133  06AD  00A2               	movwf	??_Send_DTMF_pack+2
  2134  06AE                     u2145:	
  2135  06AE  0D21               	rlf	??_Send_DTMF_pack+1,w
  2136  06AF  0CA1               	rrf	??_Send_DTMF_pack+1,f
  2137  06B0  0CA0               	rrf	??_Send_DTMF_pack,f
  2138  06B1  0BA2               	decfsz	??_Send_DTMF_pack+2,f
  2139  06B2  2EAE               	goto	u2145
  2140  06B3  300F               	movlw	15
  2141  06B4  0520               	andwf	??_Send_DTMF_pack,w
  2142  06B5  00A3               	movwf	Send_DTMF_pack@high
  2143  06B6  3000               	movlw	0
  2144  06B7  0521               	andwf	??_Send_DTMF_pack+1,w
  2145  06B8  00A4               	movwf	Send_DTMF_pack@high+1
  2146  06B9                     l1933:	
  2147                           
  2148                           ;./DTMF_encoding.h: 116:     nib_to_DTMF(high);
  2149  06B9  0824               	movf	Send_DTMF_pack@high+1,w
  2150  06BA  00F3               	movwf	nib_to_DTMF@nib+1
  2151  06BB  0823               	movf	Send_DTMF_pack@high,w
  2152  06BC  00F2               	movwf	nib_to_DTMF@nib
  2153  06BD  318F  271F  3186   	fcall	_nib_to_DTMF
  2154  06C0                     l1935:	
  2155                           
  2156                           ;./DTMF_encoding.h: 117:     _delay((unsigned long)((500)*(1000000/4000.0)));
  2157  06C0  30A3               	movlw	163
  2158  06C1  0020               	movlb	0	; select bank0
  2159  06C2  00A0               	movwf	??_Send_DTMF_pack
  2160  06C3  3055               	movlw	85
  2161  06C4                     u3087:	
  2162  06C4  0B89               	decfsz	9,f
  2163  06C5  2EC4               	goto	u3087
  2164  06C6  0BA0               	decfsz	??_Send_DTMF_pack,f
  2165  06C7  2EC4               	goto	u3087
  2166  06C8                     l1937:	
  2167                           
  2168                           ;./DTMF_encoding.h: 118:     PORTC=0xFF;
  2169  06C8  30FF               	movlw	255
  2170  06C9  0020               	movlb	0	; select bank0
  2171  06CA  008E               	movwf	14	;volatile
  2172  06CB                     l1939:	
  2173                           
  2174                           ;./DTMF_encoding.h: 119:     _delay((unsigned long)((500)*(1000000/4000.0)));
  2175  06CB  30A3               	movlw	163
  2176  06CC  0020               	movlb	0	; select bank0
  2177  06CD  00A0               	movwf	??_Send_DTMF_pack
  2178  06CE  3055               	movlw	85
  2179  06CF                     u3097:	
  2180  06CF  0B89               	decfsz	9,f
  2181  06D0  2ECF               	goto	u3097
  2182  06D1  0BA0               	decfsz	??_Send_DTMF_pack,f
  2183  06D2  2ECF               	goto	u3097
  2184  06D3                     l1941:	
  2185                           
  2186                           ;./DTMF_encoding.h: 120:     low = wind & 0x0F;
  2187  06D3  300F               	movlw	15
  2188  06D4  0574               	andwf	Send_DTMF_pack@wind,w
  2189  06D5  0020               	movlb	0	; select bank0
  2190  06D6  00A5               	movwf	Send_DTMF_pack@low
  2191  06D7  3000               	movlw	0
  2192  06D8  0575               	andwf	Send_DTMF_pack@wind+1,w
  2193  06D9  00A6               	movwf	Send_DTMF_pack@low+1
  2194  06DA                     l1943:	
  2195                           
  2196                           ;./DTMF_encoding.h: 121:     nib_to_DTMF(low);
  2197  06DA  0826               	movf	Send_DTMF_pack@low+1,w
  2198  06DB  00F3               	movwf	nib_to_DTMF@nib+1
  2199  06DC  0825               	movf	Send_DTMF_pack@low,w
  2200  06DD  00F2               	movwf	nib_to_DTMF@nib
  2201  06DE  318F  271F  3186   	fcall	_nib_to_DTMF
  2202  06E1                     l1945:	
  2203                           
  2204                           ;./DTMF_encoding.h: 122:     _delay((unsigned long)((500)*(1000000/4000.0)));
  2205  06E1  30A3               	movlw	163
  2206  06E2  0020               	movlb	0	; select bank0
  2207  06E3  00A0               	movwf	??_Send_DTMF_pack
  2208  06E4  3055               	movlw	85
  2209  06E5                     u3107:	
  2210  06E5  0B89               	decfsz	9,f
  2211  06E6  2EE5               	goto	u3107
  2212  06E7  0BA0               	decfsz	??_Send_DTMF_pack,f
  2213  06E8  2EE5               	goto	u3107
  2214  06E9                     l1947:	
  2215                           
  2216                           ;./DTMF_encoding.h: 123:     PORTC=0xFF;
  2217  06E9  30FF               	movlw	255
  2218  06EA  0020               	movlb	0	; select bank0
  2219  06EB  008E               	movwf	14	;volatile
  2220  06EC                     l1949:	
  2221                           
  2222                           ;./DTMF_encoding.h: 124:     _delay((unsigned long)((500)*(1000000/4000.0)));
  2223  06EC  30A3               	movlw	163
  2224  06ED  0020               	movlb	0	; select bank0
  2225  06EE  00A0               	movwf	??_Send_DTMF_pack
  2226  06EF  3055               	movlw	85
  2227  06F0                     u3117:	
  2228  06F0  0B89               	decfsz	9,f
  2229  06F1  2EF0               	goto	u3117
  2230  06F2  0BA0               	decfsz	??_Send_DTMF_pack,f
  2231  06F3  2EF0               	goto	u3117
  2232  06F4                     l1951:	
  2233                           
  2234                           ;./DTMF_encoding.h: 126:     high = press >>4 & 0x0F;
  2235  06F4  0879               	movf	Send_DTMF_pack@press+1,w
  2236  06F5  0020               	movlb	0	; select bank0
  2237  06F6  00A1               	movwf	??_Send_DTMF_pack+1
  2238  06F7  0878               	movf	Send_DTMF_pack@press,w
  2239  06F8  00A0               	movwf	??_Send_DTMF_pack
  2240  06F9  3004               	movlw	4
  2241  06FA  00A2               	movwf	??_Send_DTMF_pack+2
  2242  06FB                     u2155:	
  2243  06FB  0D21               	rlf	??_Send_DTMF_pack+1,w
  2244  06FC  0CA1               	rrf	??_Send_DTMF_pack+1,f
  2245  06FD  0CA0               	rrf	??_Send_DTMF_pack,f
  2246  06FE  0BA2               	decfsz	??_Send_DTMF_pack+2,f
  2247  06FF  2EFB               	goto	u2155
  2248  0700  300F               	movlw	15
  2249  0701  0520               	andwf	??_Send_DTMF_pack,w
  2250  0702  00A3               	movwf	Send_DTMF_pack@high
  2251  0703  3000               	movlw	0
  2252  0704  0521               	andwf	??_Send_DTMF_pack+1,w
  2253  0705  00A4               	movwf	Send_DTMF_pack@high+1
  2254  0706                     l1953:	
  2255                           
  2256                           ;./DTMF_encoding.h: 127:     nib_to_DTMF(high);
  2257  0706  0824               	movf	Send_DTMF_pack@high+1,w
  2258  0707  00F3               	movwf	nib_to_DTMF@nib+1
  2259  0708  0823               	movf	Send_DTMF_pack@high,w
  2260  0709  00F2               	movwf	nib_to_DTMF@nib
  2261  070A  318F  271F  3186   	fcall	_nib_to_DTMF
  2262  070D                     l1955:	
  2263                           
  2264                           ;./DTMF_encoding.h: 128:     _delay((unsigned long)((500)*(1000000/4000.0)));
  2265  070D  30A3               	movlw	163
  2266  070E  0020               	movlb	0	; select bank0
  2267  070F  00A0               	movwf	??_Send_DTMF_pack
  2268  0710  3055               	movlw	85
  2269  0711                     u3127:	
  2270  0711  0B89               	decfsz	9,f
  2271  0712  2F11               	goto	u3127
  2272  0713  0BA0               	decfsz	??_Send_DTMF_pack,f
  2273  0714  2F11               	goto	u3127
  2274  0715                     l1957:	
  2275                           
  2276                           ;./DTMF_encoding.h: 129:     PORTC=0xFF;
  2277  0715  30FF               	movlw	255
  2278  0716  0020               	movlb	0	; select bank0
  2279  0717  008E               	movwf	14	;volatile
  2280  0718                     l1959:	
  2281                           
  2282                           ;./DTMF_encoding.h: 130:     _delay((unsigned long)((500)*(1000000/4000.0)));
  2283  0718  30A3               	movlw	163
  2284  0719  0020               	movlb	0	; select bank0
  2285  071A  00A0               	movwf	??_Send_DTMF_pack
  2286  071B  3055               	movlw	85
  2287  071C                     u3137:	
  2288  071C  0B89               	decfsz	9,f
  2289  071D  2F1C               	goto	u3137
  2290  071E  0BA0               	decfsz	??_Send_DTMF_pack,f
  2291  071F  2F1C               	goto	u3137
  2292  0720                     l1961:	
  2293                           
  2294                           ;./DTMF_encoding.h: 131:     low = press & 0x0F;
  2295  0720  300F               	movlw	15
  2296  0721  0578               	andwf	Send_DTMF_pack@press,w
  2297  0722  0020               	movlb	0	; select bank0
  2298  0723  00A5               	movwf	Send_DTMF_pack@low
  2299  0724  3000               	movlw	0
  2300  0725  0579               	andwf	Send_DTMF_pack@press+1,w
  2301  0726  00A6               	movwf	Send_DTMF_pack@low+1
  2302  0727                     l1963:	
  2303                           
  2304                           ;./DTMF_encoding.h: 132:     nib_to_DTMF(low);
  2305  0727  0826               	movf	Send_DTMF_pack@low+1,w
  2306  0728  00F3               	movwf	nib_to_DTMF@nib+1
  2307  0729  0825               	movf	Send_DTMF_pack@low,w
  2308  072A  00F2               	movwf	nib_to_DTMF@nib
  2309  072B  318F  271F  3186   	fcall	_nib_to_DTMF
  2310  072E                     l1965:	
  2311                           
  2312                           ;./DTMF_encoding.h: 133:     _delay((unsigned long)((500)*(1000000/4000.0)));
  2313  072E  30A3               	movlw	163
  2314  072F  0020               	movlb	0	; select bank0
  2315  0730  00A0               	movwf	??_Send_DTMF_pack
  2316  0731  3055               	movlw	85
  2317  0732                     u3147:	
  2318  0732  0B89               	decfsz	9,f
  2319  0733  2F32               	goto	u3147
  2320  0734  0BA0               	decfsz	??_Send_DTMF_pack,f
  2321  0735  2F32               	goto	u3147
  2322  0736                     l1967:	
  2323                           
  2324                           ;./DTMF_encoding.h: 134:     PORTC=0xFF;
  2325  0736  30FF               	movlw	255
  2326  0737  0020               	movlb	0	; select bank0
  2327  0738  008E               	movwf	14	;volatile
  2328  0739                     l1969:	
  2329                           
  2330                           ;./DTMF_encoding.h: 135:     _delay((unsigned long)((500)*(1000000/4000.0)));
  2331  0739  30A3               	movlw	163
  2332  073A  0020               	movlb	0	; select bank0
  2333  073B  00A0               	movwf	??_Send_DTMF_pack
  2334  073C  3055               	movlw	85
  2335  073D                     u3157:	
  2336  073D  0B89               	decfsz	9,f
  2337  073E  2F3D               	goto	u3157
  2338  073F  0BA0               	decfsz	??_Send_DTMF_pack,f
  2339  0740  2F3D               	goto	u3157
  2340  0741                     l1971:	
  2341                           
  2342                           ;./DTMF_encoding.h: 137:     nib_to_DTMF(0x00);
  2343  0741  3000               	movlw	0
  2344  0742  00F2               	movwf	nib_to_DTMF@nib
  2345  0743  00F3               	movwf	nib_to_DTMF@nib+1
  2346  0744  318F  271F  3186   	fcall	_nib_to_DTMF
  2347  0747                     l1973:	
  2348                           
  2349                           ;./DTMF_encoding.h: 138:      _delay((unsigned long)((5)*(1000000/4000.0)));
  2350  0747  30FA               	movlw	250
  2351  0748                     u3167:	
  2352  0748  3200               	nop2
  2353  0749  0B89               	decfsz	9,f
  2354  074A  2F48               	goto	u3167
  2355  074B                     l1975:	
  2356                           
  2357                           ;./DTMF_encoding.h: 139:      PORTC=0xFF;
  2358  074B  30FF               	movlw	255
  2359  074C  0020               	movlb	0	; select bank0
  2360  074D  008E               	movwf	14	;volatile
  2361  074E                     l98:	
  2362  074E  0008               	return
  2363  074F                     __end_of_Send_DTMF_pack:	
  2364                           
  2365                           	psect	text4
  2366  0F1F                     __ptext4:	
  2367 ;; *************** function _nib_to_DTMF *****************
  2368 ;; Defined at:
  2369 ;;		line 25 in file "./DTMF_encoding.h"
  2370 ;; Parameters:    Size  Location     Type
  2371 ;;  nib             2    2[COMMON] int 
  2372 ;; Auto vars:     Size  Location     Type
  2373 ;;		None
  2374 ;; Return value:  Size  Location     Type
  2375 ;;                  1    wreg      void 
  2376 ;; Registers used:
  2377 ;;		wreg, fsr0l, fsr0h, status,2, status,0
  2378 ;; Tracked objects:
  2379 ;;		On entry : 0/0
  2380 ;;		On exit  : 0/0
  2381 ;;		Unchanged: 0/0
  2382 ;; Data sizes:     COMMON   BANK0   BANK1   BANK2   BANK3   BANK4   BANK5   BANK6
  2383 ;;      Params:         2       0       0       0       0       0       0       0
  2384 ;;      Locals:         0       0       0       0       0       0       0       0
  2385 ;;      Temps:          0       0       0       0       0       0       0       0
  2386 ;;      Totals:         2       0       0       0       0       0       0       0
  2387 ;;Total ram usage:        2 bytes
  2388 ;; Hardware stack levels used:    1
  2389 ;; Hardware stack levels required when called:    1
  2390 ;; This function calls:
  2391 ;;		Nothing
  2392 ;; This function is called by:
  2393 ;;		_Send_DTMF_pack
  2394 ;; This function uses a non-reentrant model
  2395 ;;
  2396                           
  2397                           
  2398                           ;psect for function _nib_to_DTMF
  2399  0F1F                     _nib_to_DTMF:	
  2400  0F1F                     l1477:	
  2401                           ;incstack = 0
  2402                           ; Regs used in _nib_to_DTMF: [wreg-fsr0h+status,2+status,0]
  2403                           
  2404                           
  2405                           ;./DTMF_encoding.h: 26:     PORTC=0xFF;
  2406  0F1F  30FF               	movlw	255
  2407  0F20  0020               	movlb	0	; select bank0
  2408  0F21  008E               	movwf	14	;volatile
  2409                           
  2410                           ;./DTMF_encoding.h: 27:     switch (nib){
  2411  0F22  2F53               	goto	l1481
  2412  0F23                     l78:	
  2413                           ;./DTMF_encoding.h: 28:         case 0:
  2414                           
  2415                           
  2416                           ;./DTMF_encoding.h: 29:             RC4 = 0;
  2417  0F23  120E               	bcf	14,4	;volatile
  2418                           
  2419                           ;./DTMF_encoding.h: 30:             RC5 = 0;
  2420  0F24  128E               	bcf	14,5	;volatile
  2421                           
  2422                           ;./DTMF_encoding.h: 31:         break;
  2423  0F25  2F8A               	goto	l95
  2424  0F26                     l80:	
  2425                           ;./DTMF_encoding.h: 32:         case 1:
  2426                           
  2427                           
  2428                           ;./DTMF_encoding.h: 33:             RC7 = 0;
  2429  0F26  138E               	bcf	14,7	;volatile
  2430                           
  2431                           ;./DTMF_encoding.h: 34:             RC2 = 0;
  2432  0F27  110E               	bcf	14,2	;volatile
  2433                           
  2434                           ;./DTMF_encoding.h: 35:         break;
  2435  0F28  2F8A               	goto	l95
  2436  0F29                     l81:	
  2437                           ;./DTMF_encoding.h: 36:         case 2:
  2438                           
  2439                           
  2440                           ;./DTMF_encoding.h: 37:             RC7 = 0;
  2441  0F29  138E               	bcf	14,7	;volatile
  2442                           
  2443                           ;./DTMF_encoding.h: 38:             RC1 = 0;
  2444  0F2A  108E               	bcf	14,1	;volatile
  2445                           
  2446                           ;./DTMF_encoding.h: 39:         break;
  2447  0F2B  2F8A               	goto	l95
  2448  0F2C                     l82:	
  2449                           ;./DTMF_encoding.h: 40:         case 3:
  2450                           
  2451                           
  2452                           ;./DTMF_encoding.h: 41:             RC7 = 0;
  2453  0F2C  138E               	bcf	14,7	;volatile
  2454                           
  2455                           ;./DTMF_encoding.h: 42:             RC0 = 0;
  2456  0F2D  100E               	bcf	14,0	;volatile
  2457                           
  2458                           ;./DTMF_encoding.h: 43:         break;
  2459  0F2E  2F8A               	goto	l95
  2460  0F2F                     l83:	
  2461                           ;./DTMF_encoding.h: 44:         case 4:
  2462                           
  2463                           
  2464                           ;./DTMF_encoding.h: 45:             RC6 = 0;
  2465  0F2F  130E               	bcf	14,6	;volatile
  2466                           
  2467                           ;./DTMF_encoding.h: 46:             RC2 = 0;
  2468  0F30  110E               	bcf	14,2	;volatile
  2469                           
  2470                           ;./DTMF_encoding.h: 47:         break;
  2471  0F31  2F8A               	goto	l95
  2472  0F32                     l84:	
  2473                           ;./DTMF_encoding.h: 48:         case 5:
  2474                           
  2475                           
  2476                           ;./DTMF_encoding.h: 49:             RC6 = 0;
  2477  0F32  130E               	bcf	14,6	;volatile
  2478                           
  2479                           ;./DTMF_encoding.h: 50:             RC1 = 0;
  2480  0F33  108E               	bcf	14,1	;volatile
  2481                           
  2482                           ;./DTMF_encoding.h: 51:         break;
  2483  0F34  2F8A               	goto	l95
  2484  0F35                     l85:	
  2485                           ;./DTMF_encoding.h: 52:         case 6:
  2486                           
  2487                           
  2488                           ;./DTMF_encoding.h: 53:             RC6 = 0;
  2489  0F35  130E               	bcf	14,6	;volatile
  2490                           
  2491                           ;./DTMF_encoding.h: 54:             RC0 = 0;
  2492  0F36  100E               	bcf	14,0	;volatile
  2493                           
  2494                           ;./DTMF_encoding.h: 55:         break;
  2495  0F37  2F8A               	goto	l95
  2496  0F38                     l86:	
  2497                           ;./DTMF_encoding.h: 56:         case 7:
  2498                           
  2499                           
  2500                           ;./DTMF_encoding.h: 57:             RC3 = 0;
  2501  0F38  118E               	bcf	14,3	;volatile
  2502                           
  2503                           ;./DTMF_encoding.h: 58:             RC2 = 0;
  2504  0F39  110E               	bcf	14,2	;volatile
  2505                           
  2506                           ;./DTMF_encoding.h: 59:         break;
  2507  0F3A  2F8A               	goto	l95
  2508  0F3B                     l87:	
  2509                           ;./DTMF_encoding.h: 60:         case 8:
  2510                           
  2511                           
  2512                           ;./DTMF_encoding.h: 61:             RC3 = 0;
  2513  0F3B  118E               	bcf	14,3	;volatile
  2514                           
  2515                           ;./DTMF_encoding.h: 62:             RC1 = 0;
  2516  0F3C  108E               	bcf	14,1	;volatile
  2517                           
  2518                           ;./DTMF_encoding.h: 63:         break;
  2519  0F3D  2F8A               	goto	l95
  2520  0F3E                     l88:	
  2521                           ;./DTMF_encoding.h: 64:         case 9:
  2522                           
  2523                           
  2524                           ;./DTMF_encoding.h: 65:             RC3 = 0;
  2525  0F3E  118E               	bcf	14,3	;volatile
  2526                           
  2527                           ;./DTMF_encoding.h: 66:             RC0 = 0;
  2528  0F3F  100E               	bcf	14,0	;volatile
  2529                           
  2530                           ;./DTMF_encoding.h: 67:         break;
  2531  0F40  2F8A               	goto	l95
  2532  0F41                     l89:	
  2533                           ;./DTMF_encoding.h: 68:         case 10:
  2534                           
  2535                           
  2536                           ;./DTMF_encoding.h: 69:             RC4 = 0;
  2537  0F41  120E               	bcf	14,4	;volatile
  2538                           
  2539                           ;./DTMF_encoding.h: 70:             RC1 = 0;
  2540  0F42  108E               	bcf	14,1	;volatile
  2541                           
  2542                           ;./DTMF_encoding.h: 71:         break;
  2543  0F43  2F8A               	goto	l95
  2544  0F44                     l90:	
  2545                           ;./DTMF_encoding.h: 72:         case 11:
  2546                           
  2547                           
  2548                           ;./DTMF_encoding.h: 73:             RC4 = 0;
  2549  0F44  120E               	bcf	14,4	;volatile
  2550                           
  2551                           ;./DTMF_encoding.h: 74:             RC2 = 0;
  2552  0F45  110E               	bcf	14,2	;volatile
  2553                           
  2554                           ;./DTMF_encoding.h: 75:         break;
  2555  0F46  2F8A               	goto	l95
  2556  0F47                     l91:	
  2557                           ;./DTMF_encoding.h: 76:         case 12:
  2558                           
  2559                           
  2560                           ;./DTMF_encoding.h: 77:             RC4 = 0;
  2561  0F47  120E               	bcf	14,4	;volatile
  2562                           
  2563                           ;./DTMF_encoding.h: 78:             RC0 = 0;
  2564  0F48  100E               	bcf	14,0	;volatile
  2565                           
  2566                           ;./DTMF_encoding.h: 79:         break;
  2567  0F49  2F8A               	goto	l95
  2568  0F4A                     l92:	
  2569                           ;./DTMF_encoding.h: 80:         case 13:
  2570                           
  2571                           
  2572                           ;./DTMF_encoding.h: 81:             RC7 = 0;
  2573  0F4A  138E               	bcf	14,7	;volatile
  2574                           
  2575                           ;./DTMF_encoding.h: 82:             RC5 = 0;
  2576  0F4B  128E               	bcf	14,5	;volatile
  2577                           
  2578                           ;./DTMF_encoding.h: 83:         break;
  2579  0F4C  2F8A               	goto	l95
  2580  0F4D                     l93:	
  2581                           ;./DTMF_encoding.h: 84:         case 14:
  2582                           
  2583                           
  2584                           ;./DTMF_encoding.h: 85:             RC6 = 0;
  2585  0F4D  130E               	bcf	14,6	;volatile
  2586                           
  2587                           ;./DTMF_encoding.h: 86:             RC5 = 0;
  2588  0F4E  128E               	bcf	14,5	;volatile
  2589                           
  2590                           ;./DTMF_encoding.h: 87:         break;
  2591  0F4F  2F8A               	goto	l95
  2592  0F50                     l94:	
  2593                           ;./DTMF_encoding.h: 88:         case 15:
  2594                           
  2595                           
  2596                           ;./DTMF_encoding.h: 89:             RC3 = 0;
  2597  0F50  118E               	bcf	14,3	;volatile
  2598                           
  2599                           ;./DTMF_encoding.h: 90:             RC5 = 0;
  2600  0F51  128E               	bcf	14,5	;volatile
  2601                           
  2602                           ;./DTMF_encoding.h: 91:         break;
  2603  0F52  2F8A               	goto	l95
  2604  0F53                     l1481:	
  2605                           
  2606                           ; Switch on 2 bytes has been partitioned into a top level switch of size 1, and 1 sub-sw
      +                          itches
  2607                           ; Switch size 1, requested type "simple"
  2608                           ; Number of cases is 1, Range of values is 0 to 0
  2609                           ; switch strategies available:
  2610                           ; Name         Instructions Cycles
  2611                           ; simple_byte            4     3 (average)
  2612                           ; direct_byte            8     6 (fixed)
  2613                           ; jumptable            260     6 (fixed)
  2614                           ;	Chosen strategy is simple_byte
  2615  0F53  0873               	movf	nib_to_DTMF@nib+1,w
  2616  0F54  3A00               	xorlw	0	; case 0
  2617  0F55  1903               	skipnz
  2618  0F56  2F58               	goto	l2531
  2619  0F57  2F8A               	goto	l95
  2620  0F58                     l2531:	
  2621                           
  2622                           ; Switch size 1, requested type "simple"
  2623                           ; Number of cases is 16, Range of values is 0 to 15
  2624                           ; switch strategies available:
  2625                           ; Name         Instructions Cycles
  2626                           ; direct_byte           38     6 (fixed)
  2627                           ; simple_byte           49    25 (average)
  2628                           ; jumptable            260     6 (fixed)
  2629                           ;	Chosen strategy is simple_byte
  2630  0F58  0872               	movf	nib_to_DTMF@nib,w
  2631  0F59  3A00               	xorlw	0	; case 0
  2632  0F5A  1903               	skipnz
  2633  0F5B  2F23               	goto	l78
  2634  0F5C  3A01               	xorlw	1	; case 1
  2635  0F5D  1903               	skipnz
  2636  0F5E  2F26               	goto	l80
  2637  0F5F  3A03               	xorlw	3	; case 2
  2638  0F60  1903               	skipnz
  2639  0F61  2F29               	goto	l81
  2640  0F62  3A01               	xorlw	1	; case 3
  2641  0F63  1903               	skipnz
  2642  0F64  2F2C               	goto	l82
  2643  0F65  3A07               	xorlw	7	; case 4
  2644  0F66  1903               	skipnz
  2645  0F67  2F2F               	goto	l83
  2646  0F68  3A01               	xorlw	1	; case 5
  2647  0F69  1903               	skipnz
  2648  0F6A  2F32               	goto	l84
  2649  0F6B  3A03               	xorlw	3	; case 6
  2650  0F6C  1903               	skipnz
  2651  0F6D  2F35               	goto	l85
  2652  0F6E  3A01               	xorlw	1	; case 7
  2653  0F6F  1903               	skipnz
  2654  0F70  2F38               	goto	l86
  2655  0F71  3A0F               	xorlw	15	; case 8
  2656  0F72  1903               	skipnz
  2657  0F73  2F3B               	goto	l87
  2658  0F74  3A01               	xorlw	1	; case 9
  2659  0F75  1903               	skipnz
  2660  0F76  2F3E               	goto	l88
  2661  0F77  3A03               	xorlw	3	; case 10
  2662  0F78  1903               	skipnz
  2663  0F79  2F41               	goto	l89
  2664  0F7A  3A01               	xorlw	1	; case 11
  2665  0F7B  1903               	skipnz
  2666  0F7C  2F44               	goto	l90
  2667  0F7D  3A07               	xorlw	7	; case 12
  2668  0F7E  1903               	skipnz
  2669  0F7F  2F47               	goto	l91
  2670  0F80  3A01               	xorlw	1	; case 13
  2671  0F81  1903               	skipnz
  2672  0F82  2F4A               	goto	l92
  2673  0F83  3A03               	xorlw	3	; case 14
  2674  0F84  1903               	skipnz
  2675  0F85  2F4D               	goto	l93
  2676  0F86  3A01               	xorlw	1	; case 15
  2677  0F87  1903               	skipnz
  2678  0F88  2F50               	goto	l94
  2679  0F89  2F8A               	goto	l95
  2680  0F8A                     l95:	
  2681  0F8A  0008               	return
  2682  0F8B                     __end_of_nib_to_DTMF:	
  2683                           
  2684                           	psect	text5
  2685  0E27                     __ptext5:	
  2686 ;; *************** function _Pres_Conv *****************
  2687 ;; Defined at:
  2688 ;;		line 38 in file "./ADC.h"
  2689 ;; Parameters:    Size  Location     Type
  2690 ;;  V2P             2   69[BANK0 ] int 
  2691 ;; Auto vars:     Size  Location     Type
  2692 ;;  pres            2   71[BANK0 ] int 
  2693 ;; Return value:  Size  Location     Type
  2694 ;;                  2   69[BANK0 ] int 
  2695 ;; Registers used:
  2696 ;;		wreg, status,2, status,0, pclath, cstack
  2697 ;; Tracked objects:
  2698 ;;		On entry : 0/0
  2699 ;;		On exit  : 0/0
  2700 ;;		Unchanged: 0/0
  2701 ;; Data sizes:     COMMON   BANK0   BANK1   BANK2   BANK3   BANK4   BANK5   BANK6
  2702 ;;      Params:         0       2       0       0       0       0       0       0
  2703 ;;      Locals:         0       2       0       0       0       0       0       0
  2704 ;;      Temps:          0       0       0       0       0       0       0       0
  2705 ;;      Totals:         0       4       0       0       0       0       0       0
  2706 ;;Total ram usage:        4 bytes
  2707 ;; Hardware stack levels used:    1
  2708 ;; Hardware stack levels required when called:    3
  2709 ;; This function calls:
  2710 ;;		___fladd
  2711 ;;		___flmul
  2712 ;;		___fltol
  2713 ;;		___xxtofl
  2714 ;; This function is called by:
  2715 ;;		_main
  2716 ;; This function uses a non-reentrant model
  2717 ;;
  2718                           
  2719                           
  2720                           ;psect for function _Pres_Conv
  2721  0E27                     _Pres_Conv:	
  2722  0E27                     l2405:	
  2723                           ;incstack = 0
  2724                           ; Regs used in _Pres_Conv: [wreg+status,2+status,0+pclath+cstack]
  2725                           
  2726                           
  2727                           ;./ADC.h: 39:     int pres = 0.15*V2P+96;
  2728  0E27  0020               	movlb	0	; select bank0
  2729  0E28  0865               	movf	Pres_Conv@V2P,w
  2730  0E29  00A0               	movwf	___xxtofl@val
  2731  0E2A  0866               	movf	Pres_Conv@V2P+1,w
  2732  0E2B  00A1               	movwf	___xxtofl@val+1
  2733  0E2C  0D89               	rlf	9,f
  2734  0E2D  3B89               	subwfb	9,f
  2735  0E2E  0989               	comf	9,f
  2736  0E2F  00A2               	movwf	___xxtofl@val+2
  2737  0E30  00A3               	movwf	___xxtofl@val+3
  2738  0E31  3001               	movlw	1
  2739  0E32  3187  274F  318E   	fcall	___xxtofl
  2740  0E35  0020               	movlb	0	; select bank0
  2741  0E36  0823               	movf	?___xxtofl+3,w
  2742  0E37  00B5               	movwf	___flmul@a+3
  2743  0E38  0822               	movf	?___xxtofl+2,w
  2744  0E39  00B4               	movwf	___flmul@a+2
  2745  0E3A  0821               	movf	?___xxtofl+1,w
  2746  0E3B  00B3               	movwf	___flmul@a+1
  2747  0E3C  0820               	movf	?___xxtofl,w
  2748  0E3D  00B2               	movwf	___flmul@a
  2749  0E3E  303E               	movlw	62
  2750  0E3F  00B1               	movwf	___flmul@b+3
  2751  0E40  3019               	movlw	25
  2752  0E41  00B0               	movwf	___flmul@b+2
  2753  0E42  3099               	movlw	153
  2754  0E43  00AF               	movwf	___flmul@b+1
  2755  0E44  309A               	movlw	154
  2756  0E45  00AE               	movwf	___flmul@b
  2757  0E46  3180  2049  318E   	fcall	___flmul
  2758  0E49  0020               	movlb	0	; select bank0
  2759  0E4A  0831               	movf	?___flmul+3,w
  2760  0E4B  00CF               	movwf	___fladd@a+3
  2761  0E4C  0830               	movf	?___flmul+2,w
  2762  0E4D  00CE               	movwf	___fladd@a+2
  2763  0E4E  082F               	movf	?___flmul+1,w
  2764  0E4F  00CD               	movwf	___fladd@a+1
  2765  0E50  082E               	movf	?___flmul,w
  2766  0E51  00CC               	movwf	___fladd@a
  2767  0E52  3042               	movlw	66
  2768  0E53  00CB               	movwf	___fladd@b+3
  2769  0E54  30C0               	movlw	192
  2770  0E55  00CA               	movwf	___fladd@b+2
  2771  0E56  3000               	movlw	0
  2772  0E57  00C9               	movwf	___fladd@b+1
  2773  0E58  3000               	movlw	0
  2774  0E59  00C8               	movwf	___fladd@b
  2775  0E5A  3182  22A0  318E   	fcall	___fladd
  2776  0E5D  0020               	movlb	0	; select bank0
  2777  0E5E  084B               	movf	?___fladd+3,w
  2778  0E5F  00DF               	movwf	___fltol@f1+3
  2779  0E60  084A               	movf	?___fladd+2,w
  2780  0E61  00DE               	movwf	___fltol@f1+2
  2781  0E62  0849               	movf	?___fladd+1,w
  2782  0E63  00DD               	movwf	___fltol@f1+1
  2783  0E64  0848               	movf	?___fladd,w
  2784  0E65  00DC               	movwf	___fltol@f1
  2785  0E66  318F  278B  318E   	fcall	___fltol
  2786  0E69  0020               	movlb	0	; select bank0
  2787  0E6A  085D               	movf	?___fltol+1,w
  2788  0E6B  00E8               	movwf	Pres_Conv@pres+1
  2789  0E6C  085C               	movf	?___fltol,w
  2790  0E6D  00E7               	movwf	Pres_Conv@pres
  2791  0E6E                     l2407:	
  2792                           
  2793                           ;./ADC.h: 40:     return pres;
  2794  0E6E  0868               	movf	Pres_Conv@pres+1,w
  2795  0E6F  00E6               	movwf	?_Pres_Conv+1
  2796  0E70  0867               	movf	Pres_Conv@pres,w
  2797  0E71  00E5               	movwf	?_Pres_Conv
  2798  0E72                     l113:	
  2799  0E72  0008               	return
  2800  0E73                     __end_of_Pres_Conv:	
  2801                           
  2802                           	psect	text6
  2803  074F                     __ptext6:	
  2804 ;; *************** function ___xxtofl *****************
  2805 ;; Defined at:
  2806 ;;		line 10 in file "D:\Apps\Xc8\pic\sources\c99\common\xxtofl.c"
  2807 ;; Parameters:    Size  Location     Type
  2808 ;;  sign            1    wreg     unsigned char 
  2809 ;;  val             4    0[BANK0 ] long 
  2810 ;; Auto vars:     Size  Location     Type
  2811 ;;  sign            1    8[BANK0 ] unsigned char 
  2812 ;;  arg             4   10[BANK0 ] unsigned long 
  2813 ;;  exp             1    9[BANK0 ] unsigned char 
  2814 ;; Return value:  Size  Location     Type
  2815 ;;                  4    0[BANK0 ] unsigned char 
  2816 ;; Registers used:
  2817 ;;		wreg, status,2, status,0
  2818 ;; Tracked objects:
  2819 ;;		On entry : 0/0
  2820 ;;		On exit  : 0/0
  2821 ;;		Unchanged: 0/0
  2822 ;; Data sizes:     COMMON   BANK0   BANK1   BANK2   BANK3   BANK4   BANK5   BANK6
  2823 ;;      Params:         0       4       0       0       0       0       0       0
  2824 ;;      Locals:         0       6       0       0       0       0       0       0
  2825 ;;      Temps:          0       4       0       0       0       0       0       0
  2826 ;;      Totals:         0      14       0       0       0       0       0       0
  2827 ;;Total ram usage:       14 bytes
  2828 ;; Hardware stack levels used:    1
  2829 ;; Hardware stack levels required when called:    1
  2830 ;; This function calls:
  2831 ;;		Nothing
  2832 ;; This function is called by:
  2833 ;;		_Temp_Conv
  2834 ;;		_Pres_Conv
  2835 ;;		_main
  2836 ;; This function uses a non-reentrant model
  2837 ;;
  2838                           
  2839                           
  2840                           ;psect for function ___xxtofl
  2841  074F                     ___xxtofl:	
  2842                           
  2843                           ;incstack = 0
  2844                           ; Regs used in ___xxtofl: [wreg+status,2+status,0]
  2845                           ;___xxtofl@sign stored from wreg
  2846  074F  0020               	movlb	0	; select bank0
  2847  0750  00A8               	movwf	___xxtofl@sign
  2848  0751                     l2355:	
  2849  0751  0828               	movf	___xxtofl@sign,w
  2850  0752  1903               	btfsc	3,2
  2851  0753  2F55               	goto	u2721
  2852  0754  2F56               	goto	u2720
  2853  0755                     u2721:	
  2854  0755  2F6A               	goto	l2361
  2855  0756                     u2720:	
  2856  0756                     l2357:	
  2857  0756  1FA3               	btfss	___xxtofl@val+3,7
  2858  0757  2F59               	goto	u2731
  2859  0758  2F5A               	goto	u2730
  2860  0759                     u2731:	
  2861  0759  2F6A               	goto	l2361
  2862  075A                     u2730:	
  2863  075A                     l2359:	
  2864  075A  0920               	comf	___xxtofl@val,w
  2865  075B  00AA               	movwf	___xxtofl@arg
  2866  075C  0921               	comf	___xxtofl@val+1,w
  2867  075D  00AB               	movwf	___xxtofl@arg+1
  2868  075E  0922               	comf	___xxtofl@val+2,w
  2869  075F  00AC               	movwf	___xxtofl@arg+2
  2870  0760  0923               	comf	___xxtofl@val+3,w
  2871  0761  00AD               	movwf	___xxtofl@arg+3
  2872  0762  0AAA               	incf	___xxtofl@arg,f
  2873  0763  1903               	skipnz
  2874  0764  0AAB               	incf	___xxtofl@arg+1,f
  2875  0765  1903               	skipnz
  2876  0766  0AAC               	incf	___xxtofl@arg+2,f
  2877  0767  1903               	skipnz
  2878  0768  0AAD               	incf	___xxtofl@arg+3,f
  2879  0769  2F72               	goto	l738
  2880  076A                     l2361:	
  2881  076A  0823               	movf	___xxtofl@val+3,w
  2882  076B  00AD               	movwf	___xxtofl@arg+3
  2883  076C  0822               	movf	___xxtofl@val+2,w
  2884  076D  00AC               	movwf	___xxtofl@arg+2
  2885  076E  0821               	movf	___xxtofl@val+1,w
  2886  076F  00AB               	movwf	___xxtofl@arg+1
  2887  0770  0820               	movf	___xxtofl@val,w
  2888  0771  00AA               	movwf	___xxtofl@arg
  2889  0772                     l738:	
  2890  0772  0823               	movf	___xxtofl@val+3,w
  2891  0773  0422               	iorwf	___xxtofl@val+2,w
  2892  0774  0421               	iorwf	___xxtofl@val+1,w
  2893  0775  0420               	iorwf	___xxtofl@val,w
  2894  0776  1D03               	skipz
  2895  0777  2F79               	goto	u2741
  2896  0778  2F7A               	goto	u2740
  2897  0779                     u2741:	
  2898  0779  2F83               	goto	l2367
  2899  077A                     u2740:	
  2900  077A                     l2363:	
  2901  077A  3000               	movlw	0
  2902  077B  00A3               	movwf	?___xxtofl+3
  2903  077C  3000               	movlw	0
  2904  077D  00A2               	movwf	?___xxtofl+2
  2905  077E  3000               	movlw	0
  2906  077F  00A1               	movwf	?___xxtofl+1
  2907  0780  3000               	movlw	0
  2908  0781  00A0               	movwf	?___xxtofl
  2909  0782  2FFB               	goto	l740
  2910  0783                     l2367:	
  2911  0783  3096               	movlw	150
  2912  0784  00A4               	movwf	??___xxtofl
  2913  0785  0824               	movf	??___xxtofl,w
  2914  0786  00A9               	movwf	___xxtofl@exp
  2915  0787  2F93               	goto	l2371
  2916  0788                     l2369:	
  2917  0788  3001               	movlw	1
  2918  0789  00A4               	movwf	??___xxtofl
  2919  078A  0824               	movf	??___xxtofl,w
  2920  078B  07A9               	addwf	___xxtofl@exp,f
  2921  078C  3001               	movlw	1
  2922  078D                     u2755:	
  2923  078D  36AD               	lsrf	___xxtofl@arg+3,f
  2924  078E  0CAC               	rrf	___xxtofl@arg+2,f
  2925  078F  0CAB               	rrf	___xxtofl@arg+1,f
  2926  0790  0CAA               	rrf	___xxtofl@arg,f
  2927  0791  0B89               	decfsz	9,f
  2928  0792  2F8D               	goto	u2755
  2929  0793                     l2371:	
  2930  0793  30FE               	movlw	254
  2931  0794  052D               	andwf	___xxtofl@arg+3,w
  2932  0795  1D03               	btfss	3,2
  2933  0796  2F98               	goto	u2761
  2934  0797  2F99               	goto	u2760
  2935  0798                     u2761:	
  2936  0798  2F88               	goto	l2369
  2937  0799                     u2760:	
  2938  0799  2FAD               	goto	l744
  2939  079A                     l2373:	
  2940  079A  3001               	movlw	1
  2941  079B  00A4               	movwf	??___xxtofl
  2942  079C  0824               	movf	??___xxtofl,w
  2943  079D  07A9               	addwf	___xxtofl@exp,f
  2944  079E                     l2375:	
  2945  079E  3001               	movlw	1
  2946  079F  07AA               	addwf	___xxtofl@arg,f
  2947  07A0  3000               	movlw	0
  2948  07A1  3DAB               	addwfc	___xxtofl@arg+1,f
  2949  07A2  3000               	movlw	0
  2950  07A3  3DAC               	addwfc	___xxtofl@arg+2,f
  2951  07A4  3000               	movlw	0
  2952  07A5  3DAD               	addwfc	___xxtofl@arg+3,f
  2953  07A6                     l2377:	
  2954  07A6  3001               	movlw	1
  2955  07A7                     u2775:	
  2956  07A7  36AD               	lsrf	___xxtofl@arg+3,f
  2957  07A8  0CAC               	rrf	___xxtofl@arg+2,f
  2958  07A9  0CAB               	rrf	___xxtofl@arg+1,f
  2959  07AA  0CAA               	rrf	___xxtofl@arg,f
  2960  07AB  0B89               	decfsz	9,f
  2961  07AC  2FA7               	goto	u2775
  2962  07AD                     l744:	
  2963  07AD  30FF               	movlw	255
  2964  07AE  052D               	andwf	___xxtofl@arg+3,w
  2965  07AF  1D03               	btfss	3,2
  2966  07B0  2FB2               	goto	u2781
  2967  07B1  2FB3               	goto	u2780
  2968  07B2                     u2781:	
  2969  07B2  2F9A               	goto	l2373
  2970  07B3                     u2780:	
  2971  07B3  2FBD               	goto	l2381
  2972  07B4                     l2379:	
  2973  07B4  3001               	movlw	1
  2974  07B5  02A9               	subwf	___xxtofl@exp,f
  2975  07B6  3001               	movlw	1
  2976  07B7                     u2795:	
  2977  07B7  35AA               	lslf	___xxtofl@arg,f
  2978  07B8  0DAB               	rlf	___xxtofl@arg+1,f
  2979  07B9  0DAC               	rlf	___xxtofl@arg+2,f
  2980  07BA  0DAD               	rlf	___xxtofl@arg+3,f
  2981  07BB  0B89               	decfsz	9,f
  2982  07BC  2FB7               	goto	u2795
  2983  07BD                     l2381:	
  2984  07BD  1BAC               	btfsc	___xxtofl@arg+2,7
  2985  07BE  2FC0               	goto	u2801
  2986  07BF  2FC1               	goto	u2800
  2987  07C0                     u2801:	
  2988  07C0  2FC7               	goto	l751
  2989  07C1                     u2800:	
  2990  07C1                     l2383:	
  2991  07C1  3002               	movlw	2
  2992  07C2  0229               	subwf	___xxtofl@exp,w
  2993  07C3  1803               	skipnc
  2994  07C4  2FC6               	goto	u2811
  2995  07C5  2FC7               	goto	u2810
  2996  07C6                     u2811:	
  2997  07C6  2FB4               	goto	l2379
  2998  07C7                     u2810:	
  2999  07C7                     l751:	
  3000  07C7  1829               	btfsc	___xxtofl@exp,0
  3001  07C8  2FCA               	goto	u2821
  3002  07C9  2FCB               	goto	u2820
  3003  07CA                     u2821:	
  3004  07CA  2FD3               	goto	l752
  3005  07CB                     u2820:	
  3006  07CB                     l2385:	
  3007  07CB  30FF               	movlw	255
  3008  07CC  05AA               	andwf	___xxtofl@arg,f
  3009  07CD  30FF               	movlw	255
  3010  07CE  05AB               	andwf	___xxtofl@arg+1,f
  3011  07CF  307F               	movlw	127
  3012  07D0  05AC               	andwf	___xxtofl@arg+2,f
  3013  07D1  30FF               	movlw	255
  3014  07D2  05AD               	andwf	___xxtofl@arg+3,f
  3015  07D3                     l752:	
  3016  07D3  1003               	clrc
  3017  07D4  0CA9               	rrf	___xxtofl@exp,f
  3018  07D5                     l2387:	
  3019  07D5  0829               	movf	___xxtofl@exp,w
  3020  07D6  00A4               	movwf	??___xxtofl
  3021  07D7  01A5               	clrf	??___xxtofl+1
  3022  07D8  01A6               	clrf	??___xxtofl+2
  3023  07D9  01A7               	clrf	??___xxtofl+3
  3024  07DA  3018               	movlw	24
  3025  07DB                     u2835:	
  3026  07DB  35A4               	lslf	??___xxtofl,f
  3027  07DC  0DA5               	rlf	??___xxtofl+1,f
  3028  07DD  0DA6               	rlf	??___xxtofl+2,f
  3029  07DE  0DA7               	rlf	??___xxtofl+3,f
  3030  07DF                     u2830:	
  3031  07DF  0B89               	decfsz	9,f
  3032  07E0  2FDB               	goto	u2835
  3033  07E1  0824               	movf	??___xxtofl,w
  3034  07E2  04AA               	iorwf	___xxtofl@arg,f
  3035  07E3  0825               	movf	??___xxtofl+1,w
  3036  07E4  04AB               	iorwf	___xxtofl@arg+1,f
  3037  07E5  0826               	movf	??___xxtofl+2,w
  3038  07E6  04AC               	iorwf	___xxtofl@arg+2,f
  3039  07E7  0827               	movf	??___xxtofl+3,w
  3040  07E8  04AD               	iorwf	___xxtofl@arg+3,f
  3041  07E9                     l2389:	
  3042  07E9  0828               	movf	___xxtofl@sign,w
  3043  07EA  1903               	btfsc	3,2
  3044  07EB  2FED               	goto	u2841
  3045  07EC  2FEE               	goto	u2840
  3046  07ED                     u2841:	
  3047  07ED  2FF3               	goto	l2395
  3048  07EE                     u2840:	
  3049  07EE                     l2391:	
  3050  07EE  1FA3               	btfss	___xxtofl@val+3,7
  3051  07EF  2FF1               	goto	u2851
  3052  07F0  2FF2               	goto	u2850
  3053  07F1                     u2851:	
  3054  07F1  2FF3               	goto	l2395
  3055  07F2                     u2850:	
  3056  07F2                     l2393:	
  3057  07F2  17AD               	bsf	___xxtofl@arg+3,7
  3058  07F3                     l2395:	
  3059  07F3  082D               	movf	___xxtofl@arg+3,w
  3060  07F4  00A3               	movwf	?___xxtofl+3
  3061  07F5  082C               	movf	___xxtofl@arg+2,w
  3062  07F6  00A2               	movwf	?___xxtofl+2
  3063  07F7  082B               	movf	___xxtofl@arg+1,w
  3064  07F8  00A1               	movwf	?___xxtofl+1
  3065  07F9  082A               	movf	___xxtofl@arg,w
  3066  07FA  00A0               	movwf	?___xxtofl
  3067  07FB                     l740:	
  3068  07FB  0008               	return
  3069  07FC                     __end_of___xxtofl:	
  3070                           
  3071                           	psect	text7
  3072  0F8B                     __ptext7:	
  3073 ;; *************** function ___fltol *****************
  3074 ;; Defined at:
  3075 ;;		line 43 in file "D:\Apps\Xc8\pic\sources\c99\common\fltol.c"
  3076 ;; Parameters:    Size  Location     Type
  3077 ;;  f1              4   60[BANK0 ] unsigned char 
  3078 ;; Auto vars:     Size  Location     Type
  3079 ;;  exp1            1    9[COMMON] unsigned char 
  3080 ;;  sign1           1    8[COMMON] unsigned char 
  3081 ;; Return value:  Size  Location     Type
  3082 ;;                  4   60[BANK0 ] long 
  3083 ;; Registers used:
  3084 ;;		wreg, status,2, status,0
  3085 ;; Tracked objects:
  3086 ;;		On entry : 0/0
  3087 ;;		On exit  : 0/0
  3088 ;;		Unchanged: 0/0
  3089 ;; Data sizes:     COMMON   BANK0   BANK1   BANK2   BANK3   BANK4   BANK5   BANK6
  3090 ;;      Params:         0       4       0       0       0       0       0       0
  3091 ;;      Locals:         2       0       0       0       0       0       0       0
  3092 ;;      Temps:          0       5       0       0       0       0       0       0
  3093 ;;      Totals:         2       9       0       0       0       0       0       0
  3094 ;;Total ram usage:       11 bytes
  3095 ;; Hardware stack levels used:    1
  3096 ;; Hardware stack levels required when called:    1
  3097 ;; This function calls:
  3098 ;;		Nothing
  3099 ;; This function is called by:
  3100 ;;		_Temp_Conv
  3101 ;;		_Pres_Conv
  3102 ;;		_main
  3103 ;; This function uses a non-reentrant model
  3104 ;;
  3105                           
  3106                           
  3107                           ;psect for function ___fltol
  3108  0F8B                     ___fltol:	
  3109  0F8B                     l2179:	
  3110                           ;incstack = 0
  3111                           ; Regs used in ___fltol: [wreg+status,2+status,0]
  3112                           
  3113  0F8B  1003               	clrc
  3114  0F8C  0020               	movlb	0	; select bank0
  3115  0F8D  0D5E               	rlf	___fltol@f1+2,w
  3116  0F8E  0D5F               	rlf	___fltol@f1+3,w
  3117  0F8F  00E0               	movwf	??___fltol
  3118  0F90  0860               	movf	??___fltol,w
  3119  0F91  00F9               	movwf	___fltol@exp1
  3120  0F92  0879               	movf	___fltol@exp1,w
  3121  0F93  1D03               	btfss	3,2
  3122  0F94  2F96               	goto	u2361
  3123  0F95  2F97               	goto	u2360
  3124  0F96                     u2361:	
  3125  0F96  2FA0               	goto	l2185
  3126  0F97                     u2360:	
  3127  0F97                     l2181:	
  3128  0F97  3000               	movlw	0
  3129  0F98  00DF               	movwf	?___fltol+3
  3130  0F99  3000               	movlw	0
  3131  0F9A  00DE               	movwf	?___fltol+2
  3132  0F9B  3000               	movlw	0
  3133  0F9C  00DD               	movwf	?___fltol+1
  3134  0F9D  3000               	movlw	0
  3135  0F9E  00DC               	movwf	?___fltol
  3136  0F9F  2FFF               	goto	l497
  3137  0FA0                     l2185:	
  3138  0FA0  085C               	movf	___fltol@f1,w
  3139  0FA1  00E0               	movwf	??___fltol
  3140  0FA2  085D               	movf	___fltol@f1+1,w
  3141  0FA3  00E1               	movwf	??___fltol+1
  3142  0FA4  085E               	movf	___fltol@f1+2,w
  3143  0FA5  00E2               	movwf	??___fltol+2
  3144  0FA6  085F               	movf	___fltol@f1+3,w
  3145  0FA7  00E3               	movwf	??___fltol+3
  3146  0FA8  301F               	movlw	31
  3147  0FA9                     u2375:	
  3148  0FA9  36E3               	lsrf	??___fltol+3,f
  3149  0FAA  0CE2               	rrf	??___fltol+2,f
  3150  0FAB  0CE1               	rrf	??___fltol+1,f
  3151  0FAC  0CE0               	rrf	??___fltol,f
  3152  0FAD                     u2370:	
  3153  0FAD  0B89               	decfsz	9,f
  3154  0FAE  2FA9               	goto	u2375
  3155  0FAF  0860               	movf	??___fltol,w
  3156  0FB0  00E4               	movwf	??___fltol+4
  3157  0FB1  0864               	movf	??___fltol+4,w
  3158  0FB2  00F8               	movwf	___fltol@sign1
  3159  0FB3                     l2187:	
  3160  0FB3  17DE               	bsf	___fltol@f1+2,7
  3161  0FB4                     l2189:	
  3162  0FB4  30FF               	movlw	255
  3163  0FB5  05DC               	andwf	___fltol@f1,f
  3164  0FB6  30FF               	movlw	255
  3165  0FB7  05DD               	andwf	___fltol@f1+1,f
  3166  0FB8  30FF               	movlw	255
  3167  0FB9  05DE               	andwf	___fltol@f1+2,f
  3168  0FBA  3000               	movlw	0
  3169  0FBB  05DF               	andwf	___fltol@f1+3,f
  3170  0FBC                     l2191:	
  3171  0FBC  3096               	movlw	150
  3172  0FBD  02F9               	subwf	___fltol@exp1,f
  3173  0FBE                     l2193:	
  3174  0FBE  1FF9               	btfss	___fltol@exp1,7
  3175  0FBF  2FC1               	goto	u2381
  3176  0FC0  2FC2               	goto	u2380
  3177  0FC1                     u2381:	
  3178  0FC1  2FDA               	goto	l2203
  3179  0FC2                     u2380:	
  3180  0FC2                     l2195:	
  3181  0FC2  0879               	movf	___fltol@exp1,w
  3182  0FC3  3A80               	xorlw	128
  3183  0FC4  3E97               	addlw	151
  3184  0FC5  1803               	skipnc
  3185  0FC6  2FC8               	goto	u2391
  3186  0FC7  2FC9               	goto	u2390
  3187  0FC8                     u2391:	
  3188  0FC8  2FCA               	goto	l2201
  3189  0FC9                     u2390:	
  3190  0FC9  2F97               	goto	l2181
  3191  0FCA                     l2201:	
  3192  0FCA  3001               	movlw	1
  3193  0FCB                     u2405:	
  3194  0FCB  36DF               	lsrf	___fltol@f1+3,f
  3195  0FCC  0CDE               	rrf	___fltol@f1+2,f
  3196  0FCD  0CDD               	rrf	___fltol@f1+1,f
  3197  0FCE  0CDC               	rrf	___fltol@f1,f
  3198  0FCF  0B89               	decfsz	9,f
  3199  0FD0  2FCB               	goto	u2405
  3200  0FD1  3001               	movlw	1
  3201  0FD2  00E0               	movwf	??___fltol
  3202  0FD3  0860               	movf	??___fltol,w
  3203  0FD4  07F9               	addwf	___fltol@exp1,f
  3204  0FD5  1D03               	btfss	3,2
  3205  0FD6  2FD8               	goto	u2411
  3206  0FD7  2FD9               	goto	u2410
  3207  0FD8                     u2411:	
  3208  0FD8  2FCA               	goto	l2201
  3209  0FD9                     u2410:	
  3210  0FD9  2FEF               	goto	l2211
  3211  0FDA                     l2203:	
  3212  0FDA  3020               	movlw	32
  3213  0FDB  0279               	subwf	___fltol@exp1,w
  3214  0FDC  1C03               	skipc
  3215  0FDD  2FDF               	goto	u2421
  3216  0FDE  2FE0               	goto	u2420
  3217  0FDF                     u2421:	
  3218  0FDF  2FEA               	goto	l504
  3219  0FE0                     u2420:	
  3220  0FE0  2F97               	goto	l2181
  3221  0FE1                     l2209:	
  3222  0FE1  3001               	movlw	1
  3223  0FE2                     u2435:	
  3224  0FE2  35DC               	lslf	___fltol@f1,f
  3225  0FE3  0DDD               	rlf	___fltol@f1+1,f
  3226  0FE4  0DDE               	rlf	___fltol@f1+2,f
  3227  0FE5  0DDF               	rlf	___fltol@f1+3,f
  3228  0FE6  0B89               	decfsz	9,f
  3229  0FE7  2FE2               	goto	u2435
  3230  0FE8  3001               	movlw	1
  3231  0FE9  02F9               	subwf	___fltol@exp1,f
  3232  0FEA                     l504:	
  3233  0FEA  0879               	movf	___fltol@exp1,w
  3234  0FEB  1D03               	btfss	3,2
  3235  0FEC  2FEE               	goto	u2441
  3236  0FED  2FEF               	goto	u2440
  3237  0FEE                     u2441:	
  3238  0FEE  2FE1               	goto	l2209
  3239  0FEF                     u2440:	
  3240  0FEF                     l2211:	
  3241  0FEF  0878               	movf	___fltol@sign1,w
  3242  0FF0  1903               	btfsc	3,2
  3243  0FF1  2FF3               	goto	u2451
  3244  0FF2  2FF4               	goto	u2450
  3245  0FF3                     u2451:	
  3246  0FF3  2FFF               	goto	l507
  3247  0FF4                     u2450:	
  3248  0FF4                     l2213:	
  3249  0FF4  09DC               	comf	___fltol@f1,f
  3250  0FF5  09DD               	comf	___fltol@f1+1,f
  3251  0FF6  09DE               	comf	___fltol@f1+2,f
  3252  0FF7  09DF               	comf	___fltol@f1+3,f
  3253  0FF8  0ADC               	incf	___fltol@f1,f
  3254  0FF9  1903               	skipnz
  3255  0FFA  0ADD               	incf	___fltol@f1+1,f
  3256  0FFB  1903               	skipnz
  3257  0FFC  0ADE               	incf	___fltol@f1+2,f
  3258  0FFD  1903               	skipnz
  3259  0FFE  0ADF               	incf	___fltol@f1+3,f
  3260  0FFF                     l507:	
  3261  0FFF                     l497:	
  3262  0FFF  0008               	return
  3263  1000                     __end_of___fltol:	
  3264                           
  3265                           	psect	text8
  3266  0049                     __ptext8:	
  3267 ;; *************** function ___flmul *****************
  3268 ;; Defined at:
  3269 ;;		line 8 in file "D:\Apps\Xc8\pic\sources\c99\common\sprcmul.c"
  3270 ;; Parameters:    Size  Location     Type
  3271 ;;  b               4   14[BANK0 ] long 
  3272 ;;  a               4   18[BANK0 ] long 
  3273 ;; Auto vars:     Size  Location     Type
  3274 ;;  prod            4   34[BANK0 ] struct .
  3275 ;;  grs             4   29[BANK0 ] unsigned long 
  3276 ;;  temp            2   38[BANK0 ] struct .
  3277 ;;  bexp            1   33[BANK0 ] unsigned char 
  3278 ;;  aexp            1   28[BANK0 ] unsigned char 
  3279 ;;  sign            1   27[BANK0 ] unsigned char 
  3280 ;; Return value:  Size  Location     Type
  3281 ;;                  4   14[BANK0 ] unsigned char 
  3282 ;; Registers used:
  3283 ;;		wreg, status,2, status,0, pclath, cstack
  3284 ;; Tracked objects:
  3285 ;;		On entry : 0/0
  3286 ;;		On exit  : 0/0
  3287 ;;		Unchanged: 0/0
  3288 ;; Data sizes:     COMMON   BANK0   BANK1   BANK2   BANK3   BANK4   BANK5   BANK6
  3289 ;;      Params:         0       8       0       0       0       0       0       0
  3290 ;;      Locals:         0      13       0       0       0       0       0       0
  3291 ;;      Temps:          0       5       0       0       0       0       0       0
  3292 ;;      Totals:         0      26       0       0       0       0       0       0
  3293 ;;Total ram usage:       26 bytes
  3294 ;; Hardware stack levels used:    1
  3295 ;; Hardware stack levels required when called:    2
  3296 ;; This function calls:
  3297 ;;		__Umul8_16
  3298 ;; This function is called by:
  3299 ;;		_Temp_Conv
  3300 ;;		_Pres_Conv
  3301 ;; This function uses a non-reentrant model
  3302 ;;
  3303                           
  3304                           
  3305                           ;psect for function ___flmul
  3306  0049                     ___flmul:	
  3307  0049                     l2215:	
  3308                           ;incstack = 0
  3309                           ; Regs used in ___flmul: [wreg+status,2+status,0+pclath+cstack]
  3310                           
  3311  0049  0020               	movlb	0	; select bank0
  3312  004A  0831               	movf	___flmul@b+3,w
  3313  004B  3980               	andlw	128
  3314  004C  00B6               	movwf	??___flmul
  3315  004D  0836               	movf	??___flmul,w
  3316  004E  00BB               	movwf	___flmul@sign
  3317  004F                     l2217:	
  3318  004F  3531               	lslf	___flmul@b+3,w
  3319  0050  00B6               	movwf	??___flmul
  3320  0051  0836               	movf	??___flmul,w
  3321  0052  00C1               	movwf	___flmul@bexp
  3322  0053                     l2219:	
  3323  0053  1FB0               	btfss	___flmul@b+2,7
  3324  0054  2856               	goto	u2461
  3325  0055  2857               	goto	u2460
  3326  0056                     u2461:	
  3327  0056  2858               	goto	l2223
  3328  0057                     u2460:	
  3329  0057                     l2221:	
  3330  0057  1441               	bsf	___flmul@bexp,0
  3331  0058                     l2223:	
  3332  0058  0841               	movf	___flmul@bexp,w
  3333  0059  1903               	btfsc	3,2
  3334  005A  285C               	goto	u2471
  3335  005B  285D               	goto	u2470
  3336  005C                     u2471:	
  3337  005C  286C               	goto	l2231
  3338  005D                     u2470:	
  3339  005D                     l2225:	
  3340  005D  0A41               	incf	___flmul@bexp,w
  3341  005E  1D03               	btfss	3,2
  3342  005F  2861               	goto	u2481
  3343  0060  2862               	goto	u2480
  3344  0061                     u2481:	
  3345  0061  286A               	goto	l2229
  3346  0062                     u2480:	
  3347  0062                     l2227:	
  3348  0062  3000               	movlw	0
  3349  0063  00B1               	movwf	___flmul@b+3
  3350  0064  3000               	movlw	0
  3351  0065  00B0               	movwf	___flmul@b+2
  3352  0066  3000               	movlw	0
  3353  0067  00AF               	movwf	___flmul@b+1
  3354  0068  3000               	movlw	0
  3355  0069  00AE               	movwf	___flmul@b
  3356  006A                     l2229:	
  3357  006A  17B0               	bsf	___flmul@b+2,7
  3358  006B  2874               	goto	l2233
  3359  006C                     l2231:	
  3360  006C  3000               	movlw	0
  3361  006D  00B1               	movwf	___flmul@b+3
  3362  006E  3000               	movlw	0
  3363  006F  00B0               	movwf	___flmul@b+2
  3364  0070  3000               	movlw	0
  3365  0071  00AF               	movwf	___flmul@b+1
  3366  0072  3000               	movlw	0
  3367  0073  00AE               	movwf	___flmul@b
  3368  0074                     l2233:	
  3369  0074  0835               	movf	___flmul@a+3,w
  3370  0075  3980               	andlw	128
  3371  0076  00B6               	movwf	??___flmul
  3372  0077  0836               	movf	??___flmul,w
  3373  0078  06BB               	xorwf	___flmul@sign,f
  3374  0079                     l2235:	
  3375  0079  3535               	lslf	___flmul@a+3,w
  3376  007A  00B6               	movwf	??___flmul
  3377  007B  0836               	movf	??___flmul,w
  3378  007C  00BC               	movwf	___flmul@aexp
  3379  007D                     l2237:	
  3380  007D  1FB4               	btfss	___flmul@a+2,7
  3381  007E  2880               	goto	u2491
  3382  007F  2881               	goto	u2490
  3383  0080                     u2491:	
  3384  0080  2882               	goto	l2241
  3385  0081                     u2490:	
  3386  0081                     l2239:	
  3387  0081  143C               	bsf	___flmul@aexp,0
  3388  0082                     l2241:	
  3389  0082  083C               	movf	___flmul@aexp,w
  3390  0083  1903               	btfsc	3,2
  3391  0084  2886               	goto	u2501
  3392  0085  2887               	goto	u2500
  3393  0086                     u2501:	
  3394  0086  2896               	goto	l2249
  3395  0087                     u2500:	
  3396  0087                     l2243:	
  3397  0087  0A3C               	incf	___flmul@aexp,w
  3398  0088  1D03               	btfss	3,2
  3399  0089  288B               	goto	u2511
  3400  008A  288C               	goto	u2510
  3401  008B                     u2511:	
  3402  008B  2894               	goto	l2247
  3403  008C                     u2510:	
  3404  008C                     l2245:	
  3405  008C  3000               	movlw	0
  3406  008D  00B5               	movwf	___flmul@a+3
  3407  008E  3000               	movlw	0
  3408  008F  00B4               	movwf	___flmul@a+2
  3409  0090  3000               	movlw	0
  3410  0091  00B3               	movwf	___flmul@a+1
  3411  0092  3000               	movlw	0
  3412  0093  00B2               	movwf	___flmul@a
  3413  0094                     l2247:	
  3414  0094  17B4               	bsf	___flmul@a+2,7
  3415  0095  289E               	goto	l2251
  3416  0096                     l2249:	
  3417  0096  3000               	movlw	0
  3418  0097  00B5               	movwf	___flmul@a+3
  3419  0098  3000               	movlw	0
  3420  0099  00B4               	movwf	___flmul@a+2
  3421  009A  3000               	movlw	0
  3422  009B  00B3               	movwf	___flmul@a+1
  3423  009C  3000               	movlw	0
  3424  009D  00B2               	movwf	___flmul@a
  3425  009E                     l2251:	
  3426  009E  083C               	movf	___flmul@aexp,w
  3427  009F  1903               	btfsc	3,2
  3428  00A0  28A2               	goto	u2521
  3429  00A1  28A3               	goto	u2520
  3430  00A2                     u2521:	
  3431  00A2  28A8               	goto	l2255
  3432  00A3                     u2520:	
  3433  00A3                     l2253:	
  3434  00A3  0841               	movf	___flmul@bexp,w
  3435  00A4  1D03               	btfss	3,2
  3436  00A5  28A7               	goto	u2531
  3437  00A6  28A8               	goto	u2530
  3438  00A7                     u2531:	
  3439  00A7  28B1               	goto	l2259
  3440  00A8                     u2530:	
  3441  00A8                     l2255:	
  3442  00A8  3000               	movlw	0
  3443  00A9  00B1               	movwf	?___flmul+3
  3444  00AA  3000               	movlw	0
  3445  00AB  00B0               	movwf	?___flmul+2
  3446  00AC  3000               	movlw	0
  3447  00AD  00AF               	movwf	?___flmul+1
  3448  00AE  3000               	movlw	0
  3449  00AF  00AE               	movwf	?___flmul
  3450  00B0  2A9F               	goto	l700
  3451  00B1                     l2259:	
  3452  00B1  082E               	movf	___flmul@b,w
  3453  00B2  00B6               	movwf	??___flmul
  3454  00B3  0836               	movf	??___flmul,w
  3455  00B4  00F2               	movwf	__Umul8_16@multiplicand
  3456  00B5  0834               	movf	___flmul@a+2,w
  3457  00B6  318E  2603  3180   	fcall	__Umul8_16
  3458  00B9  0873               	movf	?__Umul8_16+1,w
  3459  00BA  0020               	movlb	0	; select bank0
  3460  00BB  00C7               	movwf	___flmul@temp+1
  3461  00BC  0872               	movf	?__Umul8_16,w
  3462  00BD  00C6               	movwf	___flmul@temp
  3463  00BE                     l2261:	
  3464  00BE  0846               	movf	___flmul@temp,w
  3465  00BF  00B6               	movwf	??___flmul
  3466  00C0  01B7               	clrf	??___flmul+1
  3467  00C1  01B8               	clrf	??___flmul+2
  3468  00C2  01B9               	clrf	??___flmul+3
  3469  00C3  0839               	movf	??___flmul+3,w
  3470  00C4  00C0               	movwf	___flmul@grs+3
  3471  00C5  0838               	movf	??___flmul+2,w
  3472  00C6  00BF               	movwf	___flmul@grs+2
  3473  00C7  0837               	movf	??___flmul+1,w
  3474  00C8  00BE               	movwf	___flmul@grs+1
  3475  00C9  0836               	movf	??___flmul,w
  3476  00CA  00BD               	movwf	___flmul@grs
  3477  00CB                     l2263:	
  3478  00CB  0847               	movf	___flmul@temp+1,w
  3479  00CC  00B6               	movwf	??___flmul
  3480  00CD  01B7               	clrf	??___flmul+1
  3481  00CE  01B8               	clrf	??___flmul+2
  3482  00CF  01B9               	clrf	??___flmul+3
  3483  00D0  0839               	movf	??___flmul+3,w
  3484  00D1  00C5               	movwf	___flmul@prod+3
  3485  00D2  0838               	movf	??___flmul+2,w
  3486  00D3  00C4               	movwf	___flmul@prod+2
  3487  00D4  0837               	movf	??___flmul+1,w
  3488  00D5  00C3               	movwf	___flmul@prod+1
  3489  00D6  0836               	movf	??___flmul,w
  3490  00D7  00C2               	movwf	___flmul@prod
  3491  00D8  082F               	movf	___flmul@b+1,w
  3492  00D9  00B6               	movwf	??___flmul
  3493  00DA  0836               	movf	??___flmul,w
  3494  00DB  00F2               	movwf	__Umul8_16@multiplicand
  3495  00DC  0833               	movf	___flmul@a+1,w
  3496  00DD  318E  2603  3180   	fcall	__Umul8_16
  3497  00E0  0873               	movf	?__Umul8_16+1,w
  3498  00E1  0020               	movlb	0	; select bank0
  3499  00E2  00C7               	movwf	___flmul@temp+1
  3500  00E3  0872               	movf	?__Umul8_16,w
  3501  00E4  00C6               	movwf	___flmul@temp
  3502  00E5                     l2265:	
  3503  00E5  0846               	movf	___flmul@temp,w
  3504  00E6  00B6               	movwf	??___flmul
  3505  00E7  01B7               	clrf	??___flmul+1
  3506  00E8  01B8               	clrf	??___flmul+2
  3507  00E9  01B9               	clrf	??___flmul+3
  3508  00EA  0836               	movf	??___flmul,w
  3509  00EB  07BD               	addwf	___flmul@grs,f
  3510  00EC  0837               	movf	??___flmul+1,w
  3511  00ED  3DBE               	addwfc	___flmul@grs+1,f
  3512  00EE  0838               	movf	??___flmul+2,w
  3513  00EF  3DBF               	addwfc	___flmul@grs+2,f
  3514  00F0  0839               	movf	??___flmul+3,w
  3515  00F1  3DC0               	addwfc	___flmul@grs+3,f
  3516  00F2                     l2267:	
  3517  00F2  0847               	movf	___flmul@temp+1,w
  3518  00F3  00B6               	movwf	??___flmul
  3519  00F4  01B7               	clrf	??___flmul+1
  3520  00F5  01B8               	clrf	??___flmul+2
  3521  00F6  01B9               	clrf	??___flmul+3
  3522  00F7  0836               	movf	??___flmul,w
  3523  00F8  07C2               	addwf	___flmul@prod,f
  3524  00F9  0837               	movf	??___flmul+1,w
  3525  00FA  3DC3               	addwfc	___flmul@prod+1,f
  3526  00FB  0838               	movf	??___flmul+2,w
  3527  00FC  3DC4               	addwfc	___flmul@prod+2,f
  3528  00FD  0839               	movf	??___flmul+3,w
  3529  00FE  3DC5               	addwfc	___flmul@prod+3,f
  3530  00FF  0830               	movf	___flmul@b+2,w
  3531  0100  00B6               	movwf	??___flmul
  3532  0101  0836               	movf	??___flmul,w
  3533  0102  00F2               	movwf	__Umul8_16@multiplicand
  3534  0103  0832               	movf	___flmul@a,w
  3535  0104  318E  2603  3180   	fcall	__Umul8_16
  3536  0107  0873               	movf	?__Umul8_16+1,w
  3537  0108  0020               	movlb	0	; select bank0
  3538  0109  00C7               	movwf	___flmul@temp+1
  3539  010A  0872               	movf	?__Umul8_16,w
  3540  010B  00C6               	movwf	___flmul@temp
  3541  010C                     l2269:	
  3542  010C  0846               	movf	___flmul@temp,w
  3543  010D  00B6               	movwf	??___flmul
  3544  010E  01B7               	clrf	??___flmul+1
  3545  010F  01B8               	clrf	??___flmul+2
  3546  0110  01B9               	clrf	??___flmul+3
  3547  0111  0836               	movf	??___flmul,w
  3548  0112  07BD               	addwf	___flmul@grs,f
  3549  0113  0837               	movf	??___flmul+1,w
  3550  0114  3DBE               	addwfc	___flmul@grs+1,f
  3551  0115  0838               	movf	??___flmul+2,w
  3552  0116  3DBF               	addwfc	___flmul@grs+2,f
  3553  0117  0839               	movf	??___flmul+3,w
  3554  0118  3DC0               	addwfc	___flmul@grs+3,f
  3555  0119                     l2271:	
  3556  0119  0847               	movf	___flmul@temp+1,w
  3557  011A  00B6               	movwf	??___flmul
  3558  011B  01B7               	clrf	??___flmul+1
  3559  011C  01B8               	clrf	??___flmul+2
  3560  011D  01B9               	clrf	??___flmul+3
  3561  011E  0836               	movf	??___flmul,w
  3562  011F  07C2               	addwf	___flmul@prod,f
  3563  0120  0837               	movf	??___flmul+1,w
  3564  0121  3DC3               	addwfc	___flmul@prod+1,f
  3565  0122  0838               	movf	??___flmul+2,w
  3566  0123  3DC4               	addwfc	___flmul@prod+2,f
  3567  0124  0839               	movf	??___flmul+3,w
  3568  0125  3DC5               	addwfc	___flmul@prod+3,f
  3569  0126                     l2273:	
  3570  0126  3008               	movlw	8
  3571  0127                     u2545:	
  3572  0127  35BD               	lslf	___flmul@grs,f
  3573  0128  0DBE               	rlf	___flmul@grs+1,f
  3574  0129  0DBF               	rlf	___flmul@grs+2,f
  3575  012A  0DC0               	rlf	___flmul@grs+3,f
  3576  012B  0B89               	decfsz	9,f
  3577  012C  2927               	goto	u2545
  3578  012D                     l2275:	
  3579  012D  082F               	movf	___flmul@b+1,w
  3580  012E  00B6               	movwf	??___flmul
  3581  012F  0836               	movf	??___flmul,w
  3582  0130  00F2               	movwf	__Umul8_16@multiplicand
  3583  0131  0832               	movf	___flmul@a,w
  3584  0132  318E  2603  3180   	fcall	__Umul8_16
  3585  0135  0873               	movf	?__Umul8_16+1,w
  3586  0136  0020               	movlb	0	; select bank0
  3587  0137  00C7               	movwf	___flmul@temp+1
  3588  0138  0872               	movf	?__Umul8_16,w
  3589  0139  00C6               	movwf	___flmul@temp
  3590  013A                     l2277:	
  3591  013A  0846               	movf	___flmul@temp,w
  3592  013B  07BD               	addwf	___flmul@grs,f
  3593  013C  0847               	movf	___flmul@temp+1,w
  3594  013D  3DBE               	addwfc	___flmul@grs+1,f
  3595  013E  3000               	movlw	0
  3596  013F  3DBF               	addwfc	___flmul@grs+2,f
  3597  0140  3DC0               	addwfc	___flmul@grs+3,f
  3598  0141                     l2279:	
  3599  0141  082E               	movf	___flmul@b,w
  3600  0142  00B6               	movwf	??___flmul
  3601  0143  0836               	movf	??___flmul,w
  3602  0144  00F2               	movwf	__Umul8_16@multiplicand
  3603  0145  0833               	movf	___flmul@a+1,w
  3604  0146  318E  2603  3180   	fcall	__Umul8_16
  3605  0149  0873               	movf	?__Umul8_16+1,w
  3606  014A  0020               	movlb	0	; select bank0
  3607  014B  00C7               	movwf	___flmul@temp+1
  3608  014C  0872               	movf	?__Umul8_16,w
  3609  014D  00C6               	movwf	___flmul@temp
  3610  014E                     l2281:	
  3611  014E  0846               	movf	___flmul@temp,w
  3612  014F  07BD               	addwf	___flmul@grs,f
  3613  0150  0847               	movf	___flmul@temp+1,w
  3614  0151  3DBE               	addwfc	___flmul@grs+1,f
  3615  0152  3000               	movlw	0
  3616  0153  3DBF               	addwfc	___flmul@grs+2,f
  3617  0154  3DC0               	addwfc	___flmul@grs+3,f
  3618  0155                     l2283:	
  3619  0155  3008               	movlw	8
  3620  0156                     u2555:	
  3621  0156  35BD               	lslf	___flmul@grs,f
  3622  0157  0DBE               	rlf	___flmul@grs+1,f
  3623  0158  0DBF               	rlf	___flmul@grs+2,f
  3624  0159  0DC0               	rlf	___flmul@grs+3,f
  3625  015A  0B89               	decfsz	9,f
  3626  015B  2956               	goto	u2555
  3627  015C  082E               	movf	___flmul@b,w
  3628  015D  00B6               	movwf	??___flmul
  3629  015E  0836               	movf	??___flmul,w
  3630  015F  00F2               	movwf	__Umul8_16@multiplicand
  3631  0160  0832               	movf	___flmul@a,w
  3632  0161  318E  2603  3180   	fcall	__Umul8_16
  3633  0164  0873               	movf	?__Umul8_16+1,w
  3634  0165  0020               	movlb	0	; select bank0
  3635  0166  00C7               	movwf	___flmul@temp+1
  3636  0167  0872               	movf	?__Umul8_16,w
  3637  0168  00C6               	movwf	___flmul@temp
  3638  0169                     l2285:	
  3639  0169  0846               	movf	___flmul@temp,w
  3640  016A  07BD               	addwf	___flmul@grs,f
  3641  016B  0847               	movf	___flmul@temp+1,w
  3642  016C  3DBE               	addwfc	___flmul@grs+1,f
  3643  016D  3000               	movlw	0
  3644  016E  3DBF               	addwfc	___flmul@grs+2,f
  3645  016F  3DC0               	addwfc	___flmul@grs+3,f
  3646  0170                     l2287:	
  3647  0170  082F               	movf	___flmul@b+1,w
  3648  0171  00B6               	movwf	??___flmul
  3649  0172  0836               	movf	??___flmul,w
  3650  0173  00F2               	movwf	__Umul8_16@multiplicand
  3651  0174  0834               	movf	___flmul@a+2,w
  3652  0175  318E  2603  3180   	fcall	__Umul8_16
  3653  0178  0873               	movf	?__Umul8_16+1,w
  3654  0179  0020               	movlb	0	; select bank0
  3655  017A  00C7               	movwf	___flmul@temp+1
  3656  017B  0872               	movf	?__Umul8_16,w
  3657  017C  00C6               	movwf	___flmul@temp
  3658  017D  0846               	movf	___flmul@temp,w
  3659  017E  07C2               	addwf	___flmul@prod,f
  3660  017F  0847               	movf	___flmul@temp+1,w
  3661  0180  3DC3               	addwfc	___flmul@prod+1,f
  3662  0181  3000               	movlw	0
  3663  0182  3DC4               	addwfc	___flmul@prod+2,f
  3664  0183  3DC5               	addwfc	___flmul@prod+3,f
  3665  0184                     l2289:	
  3666  0184  0830               	movf	___flmul@b+2,w
  3667  0185  00B6               	movwf	??___flmul
  3668  0186  0836               	movf	??___flmul,w
  3669  0187  00F2               	movwf	__Umul8_16@multiplicand
  3670  0188  0833               	movf	___flmul@a+1,w
  3671  0189  318E  2603  3180   	fcall	__Umul8_16
  3672  018C  0873               	movf	?__Umul8_16+1,w
  3673  018D  0020               	movlb	0	; select bank0
  3674  018E  00C7               	movwf	___flmul@temp+1
  3675  018F  0872               	movf	?__Umul8_16,w
  3676  0190  00C6               	movwf	___flmul@temp
  3677  0191                     l2291:	
  3678  0191  0846               	movf	___flmul@temp,w
  3679  0192  07C2               	addwf	___flmul@prod,f
  3680  0193  0847               	movf	___flmul@temp+1,w
  3681  0194  3DC3               	addwfc	___flmul@prod+1,f
  3682  0195  3000               	movlw	0
  3683  0196  3DC4               	addwfc	___flmul@prod+2,f
  3684  0197  3DC5               	addwfc	___flmul@prod+3,f
  3685  0198  0830               	movf	___flmul@b+2,w
  3686  0199  00B6               	movwf	??___flmul
  3687  019A  0836               	movf	??___flmul,w
  3688  019B  00F2               	movwf	__Umul8_16@multiplicand
  3689  019C  0834               	movf	___flmul@a+2,w
  3690  019D  318E  2603  3180   	fcall	__Umul8_16
  3691  01A0  0873               	movf	?__Umul8_16+1,w
  3692  01A1  0020               	movlb	0	; select bank0
  3693  01A2  00C7               	movwf	___flmul@temp+1
  3694  01A3  0872               	movf	?__Umul8_16,w
  3695  01A4  00C6               	movwf	___flmul@temp
  3696  01A5                     l2293:	
  3697  01A5  0846               	movf	___flmul@temp,w
  3698  01A6  00B6               	movwf	??___flmul
  3699  01A7  0847               	movf	___flmul@temp+1,w
  3700  01A8  00B7               	movwf	??___flmul+1
  3701  01A9  01B8               	clrf	??___flmul+2
  3702  01AA  01B9               	clrf	??___flmul+3
  3703  01AB  3008               	movlw	8
  3704  01AC                     u2565:	
  3705  01AC  35B6               	lslf	??___flmul,f
  3706  01AD  0DB7               	rlf	??___flmul+1,f
  3707  01AE  0DB8               	rlf	??___flmul+2,f
  3708  01AF  0DB9               	rlf	??___flmul+3,f
  3709  01B0                     u2560:	
  3710  01B0  0B89               	decfsz	9,f
  3711  01B1  29AC               	goto	u2565
  3712  01B2  0836               	movf	??___flmul,w
  3713  01B3  07C2               	addwf	___flmul@prod,f
  3714  01B4  0837               	movf	??___flmul+1,w
  3715  01B5  3DC3               	addwfc	___flmul@prod+1,f
  3716  01B6  0838               	movf	??___flmul+2,w
  3717  01B7  3DC4               	addwfc	___flmul@prod+2,f
  3718  01B8  0839               	movf	??___flmul+3,w
  3719  01B9  3DC5               	addwfc	___flmul@prod+3,f
  3720  01BA                     l2295:	
  3721  01BA  083D               	movf	___flmul@grs,w
  3722  01BB  00B6               	movwf	??___flmul
  3723  01BC  083E               	movf	___flmul@grs+1,w
  3724  01BD  00B7               	movwf	??___flmul+1
  3725  01BE  083F               	movf	___flmul@grs+2,w
  3726  01BF  00B8               	movwf	??___flmul+2
  3727  01C0  0840               	movf	___flmul@grs+3,w
  3728  01C1  00B9               	movwf	??___flmul+3
  3729  01C2  3018               	movlw	24
  3730  01C3                     u2575:	
  3731  01C3  36B9               	lsrf	??___flmul+3,f
  3732  01C4  0CB8               	rrf	??___flmul+2,f
  3733  01C5  0CB7               	rrf	??___flmul+1,f
  3734  01C6  0CB6               	rrf	??___flmul,f
  3735  01C7                     u2570:	
  3736  01C7  0B89               	decfsz	9,f
  3737  01C8  29C3               	goto	u2575
  3738  01C9  0836               	movf	??___flmul,w
  3739  01CA  07C2               	addwf	___flmul@prod,f
  3740  01CB  0837               	movf	??___flmul+1,w
  3741  01CC  3DC3               	addwfc	___flmul@prod+1,f
  3742  01CD  0838               	movf	??___flmul+2,w
  3743  01CE  3DC4               	addwfc	___flmul@prod+2,f
  3744  01CF  0839               	movf	??___flmul+3,w
  3745  01D0  3DC5               	addwfc	___flmul@prod+3,f
  3746  01D1                     l2297:	
  3747  01D1  3008               	movlw	8
  3748  01D2                     u2585:	
  3749  01D2  35BD               	lslf	___flmul@grs,f
  3750  01D3  0DBE               	rlf	___flmul@grs+1,f
  3751  01D4  0DBF               	rlf	___flmul@grs+2,f
  3752  01D5  0DC0               	rlf	___flmul@grs+3,f
  3753  01D6  0B89               	decfsz	9,f
  3754  01D7  29D2               	goto	u2585
  3755  01D8                     l2299:	
  3756  01D8  0841               	movf	___flmul@bexp,w
  3757  01D9  073C               	addwf	___flmul@aexp,w
  3758  01DA  00B6               	movwf	??___flmul
  3759  01DB  01B7               	clrf	??___flmul+1
  3760  01DC  0DB7               	rlf	??___flmul+1,f
  3761  01DD  0836               	movf	??___flmul,w
  3762  01DE  3E82               	addlw	130
  3763  01DF  00C6               	movwf	___flmul@temp
  3764  01E0  30FF               	movlw	255
  3765  01E1  3D37               	addwfc	??___flmul+1,w
  3766  01E2  00C7               	movwf	___flmul@temp+1
  3767  01E3  29FB               	goto	l2311
  3768  01E4                     l2301:	
  3769  01E4  3001               	movlw	1
  3770  01E5                     u2595:	
  3771  01E5  35C2               	lslf	___flmul@prod,f
  3772  01E6  0DC3               	rlf	___flmul@prod+1,f
  3773  01E7  0DC4               	rlf	___flmul@prod+2,f
  3774  01E8  0DC5               	rlf	___flmul@prod+3,f
  3775  01E9  0B89               	decfsz	9,f
  3776  01EA  29E5               	goto	u2595
  3777  01EB                     l2303:	
  3778  01EB  1FC0               	btfss	___flmul@grs+3,7
  3779  01EC  29EE               	goto	u2601
  3780  01ED  29EF               	goto	u2600
  3781  01EE                     u2601:	
  3782  01EE  29F0               	goto	l2307
  3783  01EF                     u2600:	
  3784  01EF                     l2305:	
  3785  01EF  1442               	bsf	___flmul@prod,0
  3786  01F0                     l2307:	
  3787  01F0  3001               	movlw	1
  3788  01F1                     u2615:	
  3789  01F1  35BD               	lslf	___flmul@grs,f
  3790  01F2  0DBE               	rlf	___flmul@grs+1,f
  3791  01F3  0DBF               	rlf	___flmul@grs+2,f
  3792  01F4  0DC0               	rlf	___flmul@grs+3,f
  3793  01F5  0B89               	decfsz	9,f
  3794  01F6  29F1               	goto	u2615
  3795  01F7                     l2309:	
  3796  01F7  30FF               	movlw	255
  3797  01F8  07C6               	addwf	___flmul@temp,f
  3798  01F9  30FF               	movlw	255
  3799  01FA  3DC7               	addwfc	___flmul@temp+1,f
  3800  01FB                     l2311:	
  3801  01FB  1FC4               	btfss	___flmul@prod+2,7
  3802  01FC  29FE               	goto	u2621
  3803  01FD  29FF               	goto	u2620
  3804  01FE                     u2621:	
  3805  01FE  29E4               	goto	l2301
  3806  01FF                     u2620:	
  3807  01FF                     l2313:	
  3808  01FF  01BC               	clrf	___flmul@aexp
  3809  0200                     l2315:	
  3810  0200  1FC0               	btfss	___flmul@grs+3,7
  3811  0201  2A03               	goto	u2631
  3812  0202  2A04               	goto	u2630
  3813  0203                     u2631:	
  3814  0203  2A20               	goto	l2323
  3815  0204                     u2630:	
  3816  0204                     l2317:	
  3817  0204  30FF               	movlw	255
  3818  0205  053D               	andwf	___flmul@grs,w
  3819  0206  00B6               	movwf	??___flmul
  3820  0207  30FF               	movlw	255
  3821  0208  053E               	andwf	___flmul@grs+1,w
  3822  0209  00B7               	movwf	??___flmul+1
  3823  020A  30FF               	movlw	255
  3824  020B  053F               	andwf	___flmul@grs+2,w
  3825  020C  00B8               	movwf	??___flmul+2
  3826  020D  307F               	movlw	127
  3827  020E  0540               	andwf	___flmul@grs+3,w
  3828  020F  00B9               	movwf	??___flmul+3
  3829  0210  0839               	movf	??___flmul+3,w
  3830  0211  0438               	iorwf	??___flmul+2,w
  3831  0212  0437               	iorwf	??___flmul+1,w
  3832  0213  0436               	iorwf	??___flmul,w
  3833  0214  1903               	skipnz
  3834  0215  2A17               	goto	u2641
  3835  0216  2A18               	goto	u2640
  3836  0217                     u2641:	
  3837  0217  2A1B               	goto	l706
  3838  0218                     u2640:	
  3839  0218                     l2319:	
  3840  0218  01BC               	clrf	___flmul@aexp
  3841  0219  0ABC               	incf	___flmul@aexp,f
  3842  021A  2A20               	goto	l2323
  3843  021B                     l706:	
  3844  021B  1C42               	btfss	___flmul@prod,0
  3845  021C  2A1E               	goto	u2651
  3846  021D  2A1F               	goto	u2650
  3847  021E                     u2651:	
  3848  021E  2A20               	goto	l2323
  3849  021F                     u2650:	
  3850  021F  2A18               	goto	l2319
  3851  0220                     l2323:	
  3852  0220  083C               	movf	___flmul@aexp,w
  3853  0221  1903               	btfsc	3,2
  3854  0222  2A24               	goto	u2661
  3855  0223  2A25               	goto	u2660
  3856  0224                     u2661:	
  3857  0224  2A4D               	goto	l2333
  3858  0225                     u2660:	
  3859  0225                     l2325:	
  3860  0225  3001               	movlw	1
  3861  0226  07C2               	addwf	___flmul@prod,f
  3862  0227  3000               	movlw	0
  3863  0228  3DC3               	addwfc	___flmul@prod+1,f
  3864  0229  3000               	movlw	0
  3865  022A  3DC4               	addwfc	___flmul@prod+2,f
  3866  022B  3000               	movlw	0
  3867  022C  3DC5               	addwfc	___flmul@prod+3,f
  3868  022D                     l2327:	
  3869  022D  1C45               	btfss	___flmul@prod+3,0
  3870  022E  2A30               	goto	u2671
  3871  022F  2A31               	goto	u2670
  3872  0230                     u2671:	
  3873  0230  2A4D               	goto	l2333
  3874  0231                     u2670:	
  3875  0231                     l2329:	
  3876  0231  0842               	movf	___flmul@prod,w
  3877  0232  00B6               	movwf	??___flmul
  3878  0233  0843               	movf	___flmul@prod+1,w
  3879  0234  00B7               	movwf	??___flmul+1
  3880  0235  0844               	movf	___flmul@prod+2,w
  3881  0236  00B8               	movwf	??___flmul+2
  3882  0237  0845               	movf	___flmul@prod+3,w
  3883  0238  00B9               	movwf	??___flmul+3
  3884  0239  3001               	movlw	1
  3885  023A  00BA               	movwf	??___flmul+4
  3886  023B                     u2685:	
  3887  023B  37B9               	asrf	??___flmul+3,f
  3888  023C  0CB8               	rrf	??___flmul+2,f
  3889  023D  0CB7               	rrf	??___flmul+1,f
  3890  023E  0CB6               	rrf	??___flmul,f
  3891  023F                     u2680:	
  3892  023F  0BBA               	decfsz	??___flmul+4,f
  3893  0240  2A3B               	goto	u2685
  3894  0241  0839               	movf	??___flmul+3,w
  3895  0242  00C5               	movwf	___flmul@prod+3
  3896  0243  0838               	movf	??___flmul+2,w
  3897  0244  00C4               	movwf	___flmul@prod+2
  3898  0245  0837               	movf	??___flmul+1,w
  3899  0246  00C3               	movwf	___flmul@prod+1
  3900  0247  0836               	movf	??___flmul,w
  3901  0248  00C2               	movwf	___flmul@prod
  3902  0249                     l2331:	
  3903  0249  3001               	movlw	1
  3904  024A  07C6               	addwf	___flmul@temp,f
  3905  024B  3000               	movlw	0
  3906  024C  3DC7               	addwfc	___flmul@temp+1,f
  3907  024D                     l2333:	
  3908  024D  0847               	movf	___flmul@temp+1,w
  3909  024E  3A80               	xorlw	128
  3910  024F  00B6               	movwf	??___flmul
  3911  0250  3080               	movlw	128
  3912  0251  0236               	subwf	??___flmul,w
  3913  0252  1D03               	skipz
  3914  0253  2A56               	goto	u2695
  3915  0254  30FF               	movlw	255
  3916  0255  0246               	subwf	___flmul@temp,w
  3917  0256                     u2695:	
  3918  0256  1C03               	skipc
  3919  0257  2A59               	goto	u2691
  3920  0258  2A5A               	goto	u2690
  3921  0259                     u2691:	
  3922  0259  2A64               	goto	l2337
  3923  025A                     u2690:	
  3924  025A                     l2335:	
  3925  025A  307F               	movlw	127
  3926  025B  0020               	movlb	0	; select bank0
  3927  025C  00C5               	movwf	___flmul@prod+3
  3928  025D  3080               	movlw	128
  3929  025E  00C4               	movwf	___flmul@prod+2
  3930  025F  3000               	movlw	0
  3931  0260  00C3               	movwf	___flmul@prod+1
  3932  0261  3000               	movlw	0
  3933  0262  00C2               	movwf	___flmul@prod
  3934  0263  2A93               	goto	l712
  3935  0264                     l2337:	
  3936  0264  0020               	movlb	0	; select bank0
  3937  0265  0847               	movf	___flmul@temp+1,w
  3938  0266  3A80               	xorlw	128
  3939  0267  00B6               	movwf	??___flmul
  3940  0268  3080               	movlw	128
  3941  0269  0236               	subwf	??___flmul,w
  3942  026A  1D03               	skipz
  3943  026B  2A6E               	goto	u2705
  3944  026C  3001               	movlw	1
  3945  026D  0246               	subwf	___flmul@temp,w
  3946  026E                     u2705:	
  3947  026E  1803               	skipnc
  3948  026F  2A71               	goto	u2701
  3949  0270  2A72               	goto	u2700
  3950  0271                     u2701:	
  3951  0271  2A7D               	goto	l2343
  3952  0272                     u2700:	
  3953  0272                     l2339:	
  3954  0272  3000               	movlw	0
  3955  0273  0020               	movlb	0	; select bank0
  3956  0274  00C5               	movwf	___flmul@prod+3
  3957  0275  3000               	movlw	0
  3958  0276  00C4               	movwf	___flmul@prod+2
  3959  0277  3000               	movlw	0
  3960  0278  00C3               	movwf	___flmul@prod+1
  3961  0279  3000               	movlw	0
  3962  027A  00C2               	movwf	___flmul@prod
  3963  027B                     l2341:	
  3964  027B  01BB               	clrf	___flmul@sign
  3965  027C  2A93               	goto	l712
  3966  027D                     l2343:	
  3967  027D  0020               	movlb	0	; select bank0
  3968  027E  0846               	movf	___flmul@temp,w
  3969  027F  00B6               	movwf	??___flmul
  3970  0280  0836               	movf	??___flmul,w
  3971  0281  00C1               	movwf	___flmul@bexp
  3972  0282  30FF               	movlw	255
  3973  0283  05C2               	andwf	___flmul@prod,f
  3974  0284  30FF               	movlw	255
  3975  0285  05C3               	andwf	___flmul@prod+1,f
  3976  0286  307F               	movlw	127
  3977  0287  05C4               	andwf	___flmul@prod+2,f
  3978  0288  3000               	movlw	0
  3979  0289  05C5               	andwf	___flmul@prod+3,f
  3980  028A                     l2345:	
  3981  028A  1C41               	btfss	___flmul@bexp,0
  3982  028B  2A8D               	goto	u2711
  3983  028C  2A8E               	goto	u2710
  3984  028D                     u2711:	
  3985  028D  2A8F               	goto	l2349
  3986  028E                     u2710:	
  3987  028E                     l2347:	
  3988  028E  17C4               	bsf	___flmul@prod+2,7
  3989  028F                     l2349:	
  3990  028F  3641               	lsrf	___flmul@bexp,w
  3991  0290  00B6               	movwf	??___flmul
  3992  0291  0836               	movf	??___flmul,w
  3993  0292  00C5               	movwf	___flmul@prod+3
  3994  0293                     l712:	
  3995  0293  083B               	movf	___flmul@sign,w
  3996  0294  00B6               	movwf	??___flmul
  3997  0295  0836               	movf	??___flmul,w
  3998  0296  04C5               	iorwf	___flmul@prod+3,f
  3999  0297                     l2351:	
  4000  0297  0845               	movf	___flmul@prod+3,w
  4001  0298  00B1               	movwf	?___flmul+3
  4002  0299  0844               	movf	___flmul@prod+2,w
  4003  029A  00B0               	movwf	?___flmul+2
  4004  029B  0843               	movf	___flmul@prod+1,w
  4005  029C  00AF               	movwf	?___flmul+1
  4006  029D  0842               	movf	___flmul@prod,w
  4007  029E  00AE               	movwf	?___flmul
  4008  029F                     l700:	
  4009  029F  0008               	return
  4010  02A0                     __end_of___flmul:	
  4011                           
  4012                           	psect	text9
  4013  0E03                     __ptext9:	
  4014 ;; *************** function __Umul8_16 *****************
  4015 ;; Defined at:
  4016 ;;		line 4 in file "D:\Apps\Xc8\pic\sources\c99\common\Umul8_16.c"
  4017 ;; Parameters:    Size  Location     Type
  4018 ;;  multiplier      1    wreg     unsigned char 
  4019 ;;  multiplicand    1    2[COMMON] unsigned char 
  4020 ;; Auto vars:     Size  Location     Type
  4021 ;;  multiplier      1    4[BANK0 ] unsigned char 
  4022 ;;  word_mpld       2    2[BANK0 ] unsigned int 
  4023 ;;  product         2    0[BANK0 ] unsigned int 
  4024 ;; Return value:  Size  Location     Type
  4025 ;;                  2    2[COMMON] unsigned int 
  4026 ;; Registers used:
  4027 ;;		wreg, status,2, status,0
  4028 ;; Tracked objects:
  4029 ;;		On entry : 0/0
  4030 ;;		On exit  : 0/0
  4031 ;;		Unchanged: 0/0
  4032 ;; Data sizes:     COMMON   BANK0   BANK1   BANK2   BANK3   BANK4   BANK5   BANK6
  4033 ;;      Params:         2       0       0       0       0       0       0       0
  4034 ;;      Locals:         0       5       0       0       0       0       0       0
  4035 ;;      Temps:          2       0       0       0       0       0       0       0
  4036 ;;      Totals:         4       5       0       0       0       0       0       0
  4037 ;;Total ram usage:        9 bytes
  4038 ;; Hardware stack levels used:    1
  4039 ;; Hardware stack levels required when called:    1
  4040 ;; This function calls:
  4041 ;;		Nothing
  4042 ;; This function is called by:
  4043 ;;		___flmul
  4044 ;; This function uses a non-reentrant model
  4045 ;;
  4046                           
  4047                           
  4048                           ;psect for function __Umul8_16
  4049  0E03                     __Umul8_16:	
  4050                           
  4051                           ;incstack = 0
  4052                           ; Regs used in __Umul8_16: [wreg+status,2+status,0]
  4053                           ;__Umul8_16@multiplier stored from wreg
  4054  0E03  0020               	movlb	0	; select bank0
  4055  0E04  00A4               	movwf	__Umul8_16@multiplier
  4056  0E05                     l2165:	
  4057  0E05  01A0               	clrf	__Umul8_16@product
  4058  0E06  01A1               	clrf	__Umul8_16@product+1
  4059  0E07                     l2167:	
  4060  0E07  0872               	movf	__Umul8_16@multiplicand,w
  4061  0E08  00F4               	movwf	??__Umul8_16
  4062  0E09  01F5               	clrf	??__Umul8_16+1
  4063  0E0A  0874               	movf	??__Umul8_16,w
  4064  0E0B  00A2               	movwf	__Umul8_16@word_mpld
  4065  0E0C  0875               	movf	??__Umul8_16+1,w
  4066  0E0D  00A3               	movwf	__Umul8_16@word_mpld+1
  4067  0E0E                     l2169:	
  4068  0E0E  1C24               	btfss	__Umul8_16@multiplier,0
  4069  0E0F  2E11               	goto	u2331
  4070  0E10  2E12               	goto	u2330
  4071  0E11                     u2331:	
  4072  0E11  2E16               	goto	l757
  4073  0E12                     u2330:	
  4074  0E12                     l2171:	
  4075  0E12  0822               	movf	__Umul8_16@word_mpld,w
  4076  0E13  07A0               	addwf	__Umul8_16@product,f
  4077  0E14  0823               	movf	__Umul8_16@word_mpld+1,w
  4078  0E15  3DA1               	addwfc	__Umul8_16@product+1,f
  4079  0E16                     l757:	
  4080  0E16  3001               	movlw	1
  4081  0E17                     u2345:	
  4082  0E17  35A2               	lslf	__Umul8_16@word_mpld,f
  4083  0E18  0DA3               	rlf	__Umul8_16@word_mpld+1,f
  4084  0E19  0B89               	decfsz	9,f
  4085  0E1A  2E17               	goto	u2345
  4086  0E1B  1003               	clrc
  4087  0E1C  0CA4               	rrf	__Umul8_16@multiplier,f
  4088  0E1D                     l2173:	
  4089  0E1D  0824               	movf	__Umul8_16@multiplier,w
  4090  0E1E  1D03               	btfss	3,2
  4091  0E1F  2E21               	goto	u2351
  4092  0E20  2E22               	goto	u2350
  4093  0E21                     u2351:	
  4094  0E21  2E0E               	goto	l2169
  4095  0E22                     u2350:	
  4096  0E22                     l2175:	
  4097  0E22  0821               	movf	__Umul8_16@product+1,w
  4098  0E23  00F3               	movwf	?__Umul8_16+1
  4099  0E24  0820               	movf	__Umul8_16@product,w
  4100  0E25  00F2               	movwf	?__Umul8_16
  4101  0E26                     l759:	
  4102  0E26  0008               	return
  4103  0E27                     __end_of__Umul8_16:	
  4104                           
  4105                           	psect	text10
  4106  02A0                     __ptext10:	
  4107 ;; *************** function ___fladd *****************
  4108 ;; Defined at:
  4109 ;;		line 10 in file "D:\Apps\Xc8\pic\sources\c99\common\sprcadd.c"
  4110 ;; Parameters:    Size  Location     Type
  4111 ;;  b               4   40[BANK0 ] unsigned int 
  4112 ;;  a               4   44[BANK0 ] unsigned int 
  4113 ;; Auto vars:     Size  Location     Type
  4114 ;;  grs             1   59[BANK0 ] unsigned char 
  4115 ;;  bexp            1   58[BANK0 ] unsigned char 
  4116 ;;  aexp            1   57[BANK0 ] unsigned char 
  4117 ;;  signs           1   56[BANK0 ] unsigned char 
  4118 ;; Return value:  Size  Location     Type
  4119 ;;                  4   40[BANK0 ] unsigned char 
  4120 ;; Registers used:
  4121 ;;		wreg, status,2, status,0
  4122 ;; Tracked objects:
  4123 ;;		On entry : 0/0
  4124 ;;		On exit  : 0/0
  4125 ;;		Unchanged: 0/0
  4126 ;; Data sizes:     COMMON   BANK0   BANK1   BANK2   BANK3   BANK4   BANK5   BANK6
  4127 ;;      Params:         0       8       0       0       0       0       0       0
  4128 ;;      Locals:         0       4       0       0       0       0       0       0
  4129 ;;      Temps:          0       8       0       0       0       0       0       0
  4130 ;;      Totals:         0      20       0       0       0       0       0       0
  4131 ;;Total ram usage:       20 bytes
  4132 ;; Hardware stack levels used:    1
  4133 ;; Hardware stack levels required when called:    1
  4134 ;; This function calls:
  4135 ;;		Nothing
  4136 ;; This function is called by:
  4137 ;;		_Temp_Conv
  4138 ;;		_Pres_Conv
  4139 ;; This function uses a non-reentrant model
  4140 ;;
  4141                           
  4142                           
  4143                           ;psect for function ___fladd
  4144  02A0                     ___fladd:	
  4145  02A0                     l1523:	
  4146                           ;incstack = 0
  4147                           ; Regs used in ___fladd: [wreg+status,2+status,0]
  4148                           
  4149  02A0  0020               	movlb	0	; select bank0
  4150  02A1  084B               	movf	___fladd@b+3,w
  4151  02A2  3980               	andlw	128
  4152  02A3  00D0               	movwf	??___fladd
  4153  02A4  0850               	movf	??___fladd,w
  4154  02A5  00D8               	movwf	___fladd@signs
  4155  02A6                     l1525:	
  4156  02A6  354B               	lslf	___fladd@b+3,w
  4157  02A7  00D0               	movwf	??___fladd
  4158  02A8  0850               	movf	??___fladd,w
  4159  02A9  00DA               	movwf	___fladd@bexp
  4160  02AA                     l1527:	
  4161  02AA  1FCA               	btfss	___fladd@b+2,7
  4162  02AB  2AAD               	goto	u1301
  4163  02AC  2AAE               	goto	u1300
  4164  02AD                     u1301:	
  4165  02AD  2AAF               	goto	l1531
  4166  02AE                     u1300:	
  4167  02AE                     l1529:	
  4168  02AE  145A               	bsf	___fladd@bexp,0
  4169  02AF                     l1531:	
  4170  02AF  085A               	movf	___fladd@bexp,w
  4171  02B0  1903               	btfsc	3,2
  4172  02B1  2AB3               	goto	u1311
  4173  02B2  2AB4               	goto	u1310
  4174  02B3                     u1311:	
  4175  02B3  2AC4               	goto	l1541
  4176  02B4                     u1310:	
  4177  02B4                     l1533:	
  4178  02B4  0A5A               	incf	___fladd@bexp,w
  4179  02B5  1D03               	btfss	3,2
  4180  02B6  2AB8               	goto	u1321
  4181  02B7  2AB9               	goto	u1320
  4182  02B8                     u1321:	
  4183  02B8  2AC1               	goto	l1537
  4184  02B9                     u1320:	
  4185  02B9                     l1535:	
  4186  02B9  3000               	movlw	0
  4187  02BA  00CB               	movwf	___fladd@b+3
  4188  02BB  3000               	movlw	0
  4189  02BC  00CA               	movwf	___fladd@b+2
  4190  02BD  3000               	movlw	0
  4191  02BE  00C9               	movwf	___fladd@b+1
  4192  02BF  3000               	movlw	0
  4193  02C0  00C8               	movwf	___fladd@b
  4194  02C1                     l1537:	
  4195  02C1  17CA               	bsf	___fladd@b+2,7
  4196  02C2                     l1539:	
  4197  02C2  01CB               	clrf	___fladd@b+3
  4198  02C3  2ACC               	goto	l1543
  4199  02C4                     l1541:	
  4200  02C4  3000               	movlw	0
  4201  02C5  00CB               	movwf	___fladd@b+3
  4202  02C6  3000               	movlw	0
  4203  02C7  00CA               	movwf	___fladd@b+2
  4204  02C8  3000               	movlw	0
  4205  02C9  00C9               	movwf	___fladd@b+1
  4206  02CA  3000               	movlw	0
  4207  02CB  00C8               	movwf	___fladd@b
  4208  02CC                     l1543:	
  4209  02CC  084F               	movf	___fladd@a+3,w
  4210  02CD  3980               	andlw	128
  4211  02CE  00D0               	movwf	??___fladd
  4212  02CF  0850               	movf	??___fladd,w
  4213  02D0  00D9               	movwf	___fladd@aexp
  4214  02D1                     l1545:	
  4215  02D1  0859               	movf	___fladd@aexp,w
  4216  02D2  0658               	xorwf	___fladd@signs,w
  4217  02D3  1903               	skipnz
  4218  02D4  2AD6               	goto	u1331
  4219  02D5  2AD7               	goto	u1330
  4220  02D6                     u1331:	
  4221  02D6  2AD8               	goto	l1549
  4222  02D7                     u1330:	
  4223  02D7                     l1547:	
  4224  02D7  1758               	bsf	___fladd@signs,6
  4225  02D8                     l1549:	
  4226  02D8  354F               	lslf	___fladd@a+3,w
  4227  02D9  00D0               	movwf	??___fladd
  4228  02DA  0850               	movf	??___fladd,w
  4229  02DB  00D9               	movwf	___fladd@aexp
  4230  02DC                     l1551:	
  4231  02DC  1FCE               	btfss	___fladd@a+2,7
  4232  02DD  2ADF               	goto	u1341
  4233  02DE  2AE0               	goto	u1340
  4234  02DF                     u1341:	
  4235  02DF  2AE1               	goto	l1555
  4236  02E0                     u1340:	
  4237  02E0                     l1553:	
  4238  02E0  1459               	bsf	___fladd@aexp,0
  4239  02E1                     l1555:	
  4240  02E1  0859               	movf	___fladd@aexp,w
  4241  02E2  1903               	btfsc	3,2
  4242  02E3  2AE5               	goto	u1351
  4243  02E4  2AE6               	goto	u1350
  4244  02E5                     u1351:	
  4245  02E5  2AF6               	goto	l1565
  4246  02E6                     u1350:	
  4247  02E6                     l1557:	
  4248  02E6  0A59               	incf	___fladd@aexp,w
  4249  02E7  1D03               	btfss	3,2
  4250  02E8  2AEA               	goto	u1361
  4251  02E9  2AEB               	goto	u1360
  4252  02EA                     u1361:	
  4253  02EA  2AF3               	goto	l1561
  4254  02EB                     u1360:	
  4255  02EB                     l1559:	
  4256  02EB  3000               	movlw	0
  4257  02EC  00CF               	movwf	___fladd@a+3
  4258  02ED  3000               	movlw	0
  4259  02EE  00CE               	movwf	___fladd@a+2
  4260  02EF  3000               	movlw	0
  4261  02F0  00CD               	movwf	___fladd@a+1
  4262  02F1  3000               	movlw	0
  4263  02F2  00CC               	movwf	___fladd@a
  4264  02F3                     l1561:	
  4265  02F3  17CE               	bsf	___fladd@a+2,7
  4266  02F4                     l1563:	
  4267  02F4  01CF               	clrf	___fladd@a+3
  4268  02F5  2AFE               	goto	l604
  4269  02F6                     l1565:	
  4270  02F6  3000               	movlw	0
  4271  02F7  00CF               	movwf	___fladd@a+3
  4272  02F8  3000               	movlw	0
  4273  02F9  00CE               	movwf	___fladd@a+2
  4274  02FA  3000               	movlw	0
  4275  02FB  00CD               	movwf	___fladd@a+1
  4276  02FC  3000               	movlw	0
  4277  02FD  00CC               	movwf	___fladd@a
  4278  02FE                     l604:	
  4279  02FE  085A               	movf	___fladd@bexp,w
  4280  02FF  0259               	subwf	___fladd@aexp,w
  4281  0300  1803               	skipnc
  4282  0301  2B03               	goto	u1371
  4283  0302  2B04               	goto	u1370
  4284  0303                     u1371:	
  4285  0303  2B48               	goto	l1601
  4286  0304                     u1370:	
  4287  0304                     l1567:	
  4288  0304  1F58               	btfss	___fladd@signs,6
  4289  0305  2B07               	goto	u1381
  4290  0306  2B08               	goto	u1380
  4291  0307                     u1381:	
  4292  0307  2B0C               	goto	l1571
  4293  0308                     u1380:	
  4294  0308                     l1569:	
  4295  0308  3080               	movlw	128
  4296  0309  00D0               	movwf	??___fladd
  4297  030A  0850               	movf	??___fladd,w
  4298  030B  06D8               	xorwf	___fladd@signs,f
  4299  030C                     l1571:	
  4300  030C  085A               	movf	___fladd@bexp,w
  4301  030D  00D0               	movwf	??___fladd
  4302  030E  0850               	movf	??___fladd,w
  4303  030F  00DB               	movwf	___fladd@grs
  4304  0310                     l1573:	
  4305  0310  0859               	movf	___fladd@aexp,w
  4306  0311  00D0               	movwf	??___fladd
  4307  0312  0850               	movf	??___fladd,w
  4308  0313  00DA               	movwf	___fladd@bexp
  4309  0314                     l1575:	
  4310  0314  085B               	movf	___fladd@grs,w
  4311  0315  00D0               	movwf	??___fladd
  4312  0316  0850               	movf	??___fladd,w
  4313  0317  00D9               	movwf	___fladd@aexp
  4314  0318                     l1577:	
  4315  0318  0848               	movf	___fladd@b,w
  4316  0319  00D0               	movwf	??___fladd
  4317  031A  0850               	movf	??___fladd,w
  4318  031B  00DB               	movwf	___fladd@grs
  4319  031C                     l1579:	
  4320  031C  084C               	movf	___fladd@a,w
  4321  031D  00D0               	movwf	??___fladd
  4322  031E  0850               	movf	??___fladd,w
  4323  031F  00C8               	movwf	___fladd@b
  4324  0320                     l1581:	
  4325  0320  085B               	movf	___fladd@grs,w
  4326  0321  00D0               	movwf	??___fladd
  4327  0322  0850               	movf	??___fladd,w
  4328  0323  00CC               	movwf	___fladd@a
  4329  0324                     l1583:	
  4330  0324  0849               	movf	___fladd@b+1,w
  4331  0325  00D0               	movwf	??___fladd
  4332  0326  0850               	movf	??___fladd,w
  4333  0327  00DB               	movwf	___fladd@grs
  4334  0328                     l1585:	
  4335  0328  084D               	movf	___fladd@a+1,w
  4336  0329  00D0               	movwf	??___fladd
  4337  032A  0850               	movf	??___fladd,w
  4338  032B  00C9               	movwf	___fladd@b+1
  4339  032C                     l1587:	
  4340  032C  085B               	movf	___fladd@grs,w
  4341  032D  00D0               	movwf	??___fladd
  4342  032E  0850               	movf	??___fladd,w
  4343  032F  00CD               	movwf	___fladd@a+1
  4344  0330                     l1589:	
  4345  0330  084A               	movf	___fladd@b+2,w
  4346  0331  00D0               	movwf	??___fladd
  4347  0332  0850               	movf	??___fladd,w
  4348  0333  00DB               	movwf	___fladd@grs
  4349  0334                     l1591:	
  4350  0334  084E               	movf	___fladd@a+2,w
  4351  0335  00D0               	movwf	??___fladd
  4352  0336  0850               	movf	??___fladd,w
  4353  0337  00CA               	movwf	___fladd@b+2
  4354  0338                     l1593:	
  4355  0338  085B               	movf	___fladd@grs,w
  4356  0339  00D0               	movwf	??___fladd
  4357  033A  0850               	movf	??___fladd,w
  4358  033B  00CE               	movwf	___fladd@a+2
  4359  033C                     l1595:	
  4360  033C  084B               	movf	___fladd@b+3,w
  4361  033D  00D0               	movwf	??___fladd
  4362  033E  0850               	movf	??___fladd,w
  4363  033F  00DB               	movwf	___fladd@grs
  4364  0340                     l1597:	
  4365  0340  084F               	movf	___fladd@a+3,w
  4366  0341  00D0               	movwf	??___fladd
  4367  0342  0850               	movf	??___fladd,w
  4368  0343  00CB               	movwf	___fladd@b+3
  4369  0344                     l1599:	
  4370  0344  085B               	movf	___fladd@grs,w
  4371  0345  00D0               	movwf	??___fladd
  4372  0346  0850               	movf	??___fladd,w
  4373  0347  00CF               	movwf	___fladd@a+3
  4374  0348                     l1601:	
  4375  0348  01DB               	clrf	___fladd@grs
  4376  0349                     l1603:	
  4377  0349  0859               	movf	___fladd@aexp,w
  4378  034A  00D0               	movwf	??___fladd
  4379  034B  01D1               	clrf	??___fladd+1
  4380  034C  0851               	movf	??___fladd+1,w
  4381  034D  00D3               	movwf	??___fladd+3
  4382  034E  085A               	movf	___fladd@bexp,w
  4383  034F  0250               	subwf	??___fladd,w
  4384  0350  00D2               	movwf	??___fladd+2
  4385  0351  1C03               	skipc
  4386  0352  03D3               	decf	??___fladd+3,f
  4387  0353  0853               	movf	??___fladd+3,w
  4388  0354  3A80               	xorlw	128
  4389  0355  00D4               	movwf	??___fladd+4
  4390  0356  3080               	movlw	128
  4391  0357  0254               	subwf	??___fladd+4,w
  4392  0358  1D03               	skipz
  4393  0359  2B5C               	goto	u1395
  4394  035A  301A               	movlw	26
  4395  035B  0252               	subwf	??___fladd+2,w
  4396  035C                     u1395:	
  4397  035C  1C03               	skipc
  4398  035D  2B5F               	goto	u1391
  4399  035E  2B60               	goto	u1390
  4400  035F                     u1391:	
  4401  035F  2B98               	goto	l1619
  4402  0360                     u1390:	
  4403  0360                     l1605:	
  4404  0360  0020               	movlb	0	; select bank0
  4405  0361  084B               	movf	___fladd@b+3,w
  4406  0362  044A               	iorwf	___fladd@b+2,w
  4407  0363  0449               	iorwf	___fladd@b+1,w
  4408  0364  0448               	iorwf	___fladd@b,w
  4409  0365  1D03               	skipz
  4410  0366  2B68               	goto	u1401
  4411  0367  2B6A               	goto	u1400
  4412  0368                     u1401:	
  4413  0368  3001               	movlw	1
  4414  0369  2B6B               	goto	u1410
  4415  036A                     u1400:	
  4416  036A  3000               	movlw	0
  4417  036B                     u1410:	
  4418  036B  00D0               	movwf	??___fladd
  4419  036C  0850               	movf	??___fladd,w
  4420  036D  00DB               	movwf	___fladd@grs
  4421  036E  3000               	movlw	0
  4422  036F  00CB               	movwf	___fladd@b+3
  4423  0370  3000               	movlw	0
  4424  0371  00CA               	movwf	___fladd@b+2
  4425  0372  3000               	movlw	0
  4426  0373  00C9               	movwf	___fladd@b+1
  4427  0374  3000               	movlw	0
  4428  0375  00C8               	movwf	___fladd@b
  4429  0376  0859               	movf	___fladd@aexp,w
  4430  0377  00D0               	movwf	??___fladd
  4431  0378  0850               	movf	??___fladd,w
  4432  0379  00DA               	movwf	___fladd@bexp
  4433  037A  2B9F               	goto	l608
  4434  037B                     l610:	
  4435  037B  1C5B               	btfss	___fladd@grs,0
  4436  037C  2B7E               	goto	u1421
  4437  037D  2B7F               	goto	u1420
  4438  037E                     u1421:	
  4439  037E  2B85               	goto	l1609
  4440  037F                     u1420:	
  4441  037F                     l1607:	
  4442  037F  365B               	lsrf	___fladd@grs,w
  4443  0380  3801               	iorlw	1
  4444  0381  00D0               	movwf	??___fladd
  4445  0382  0850               	movf	??___fladd,w
  4446  0383  00DB               	movwf	___fladd@grs
  4447  0384  2B87               	goto	l1611
  4448  0385                     l1609:	
  4449  0385  1003               	clrc
  4450  0386  0CDB               	rrf	___fladd@grs,f
  4451  0387                     l1611:	
  4452  0387  1C48               	btfss	___fladd@b,0
  4453  0388  2B8A               	goto	u1431
  4454  0389  2B8B               	goto	u1430
  4455  038A                     u1431:	
  4456  038A  2B8C               	goto	l1615
  4457  038B                     u1430:	
  4458  038B                     l1613:	
  4459  038B  17DB               	bsf	___fladd@grs,7
  4460  038C                     l1615:	
  4461  038C  3001               	movlw	1
  4462  038D  00D0               	movwf	??___fladd
  4463  038E                     u1445:	
  4464  038E  37CB               	asrf	___fladd@b+3,f
  4465  038F  0CCA               	rrf	___fladd@b+2,f
  4466  0390  0CC9               	rrf	___fladd@b+1,f
  4467  0391  0CC8               	rrf	___fladd@b,f
  4468  0392  0BD0               	decfsz	??___fladd& (0+127),f
  4469  0393  2B8E               	goto	u1445
  4470  0394                     l1617:	
  4471  0394  3001               	movlw	1
  4472  0395  00D0               	movwf	??___fladd
  4473  0396  0850               	movf	??___fladd,w
  4474  0397  07DA               	addwf	___fladd@bexp,f
  4475  0398                     l1619:	
  4476  0398  0020               	movlb	0	; select bank0
  4477  0399  0859               	movf	___fladd@aexp,w
  4478  039A  025A               	subwf	___fladd@bexp,w
  4479  039B  1C03               	skipc
  4480  039C  2B9E               	goto	u1451
  4481  039D  2B9F               	goto	u1450
  4482  039E                     u1451:	
  4483  039E  2B7B               	goto	l610
  4484  039F                     u1450:	
  4485  039F                     l608:	
  4486  039F  1B58               	btfsc	___fladd@signs,6
  4487  03A0  2BA2               	goto	u1461
  4488  03A1  2BA3               	goto	u1460
  4489  03A2                     u1461:	
  4490  03A2  2BDB               	goto	l1645
  4491  03A3                     u1460:	
  4492  03A3                     l1621:	
  4493  03A3  085A               	movf	___fladd@bexp,w
  4494  03A4  1D03               	btfss	3,2
  4495  03A5  2BA7               	goto	u1471
  4496  03A6  2BA8               	goto	u1470
  4497  03A7                     u1471:	
  4498  03A7  2BB1               	goto	l1627
  4499  03A8                     u1470:	
  4500  03A8                     l1623:	
  4501  03A8  3000               	movlw	0
  4502  03A9  00CB               	movwf	?___fladd+3
  4503  03AA  3000               	movlw	0
  4504  03AB  00CA               	movwf	?___fladd+2
  4505  03AC  3000               	movlw	0
  4506  03AD  00C9               	movwf	?___fladd+1
  4507  03AE  3000               	movlw	0
  4508  03AF  00C8               	movwf	?___fladd
  4509  03B0  2CD7               	goto	l617
  4510  03B1                     l1627:	
  4511  03B1  084C               	movf	___fladd@a,w
  4512  03B2  07C8               	addwf	___fladd@b,f
  4513  03B3  084D               	movf	___fladd@a+1,w
  4514  03B4  3DC9               	addwfc	___fladd@b+1,f
  4515  03B5  084E               	movf	___fladd@a+2,w
  4516  03B6  3DCA               	addwfc	___fladd@b+2,f
  4517  03B7  084F               	movf	___fladd@a+3,w
  4518  03B8  3DCB               	addwfc	___fladd@b+3,f
  4519  03B9                     l1629:	
  4520  03B9  1C4B               	btfss	___fladd@b+3,0
  4521  03BA  2BBC               	goto	u1481
  4522  03BB  2BBD               	goto	u1480
  4523  03BC                     u1481:	
  4524  03BC  2C67               	goto	l1679
  4525  03BD                     u1480:	
  4526  03BD                     l1631:	
  4527  03BD  1C5B               	btfss	___fladd@grs,0
  4528  03BE  2BC0               	goto	u1491
  4529  03BF  2BC1               	goto	u1490
  4530  03C0                     u1491:	
  4531  03C0  2BC7               	goto	l1635
  4532  03C1                     u1490:	
  4533  03C1                     l1633:	
  4534  03C1  365B               	lsrf	___fladd@grs,w
  4535  03C2  3801               	iorlw	1
  4536  03C3  00D0               	movwf	??___fladd
  4537  03C4  0850               	movf	??___fladd,w
  4538  03C5  00DB               	movwf	___fladd@grs
  4539  03C6  2BC9               	goto	l1637
  4540  03C7                     l1635:	
  4541  03C7  1003               	clrc
  4542  03C8  0CDB               	rrf	___fladd@grs,f
  4543  03C9                     l1637:	
  4544  03C9  1C48               	btfss	___fladd@b,0
  4545  03CA  2BCC               	goto	u1501
  4546  03CB  2BCD               	goto	u1500
  4547  03CC                     u1501:	
  4548  03CC  2BCE               	goto	l1641
  4549  03CD                     u1500:	
  4550  03CD                     l1639:	
  4551  03CD  17DB               	bsf	___fladd@grs,7
  4552  03CE                     l1641:	
  4553  03CE  3001               	movlw	1
  4554  03CF  00D0               	movwf	??___fladd
  4555  03D0                     u1515:	
  4556  03D0  37CB               	asrf	___fladd@b+3,f
  4557  03D1  0CCA               	rrf	___fladd@b+2,f
  4558  03D2  0CC9               	rrf	___fladd@b+1,f
  4559  03D3  0CC8               	rrf	___fladd@b,f
  4560  03D4  0BD0               	decfsz	??___fladd& (0+127),f
  4561  03D5  2BD0               	goto	u1515
  4562  03D6                     l1643:	
  4563  03D6  3001               	movlw	1
  4564  03D7  00D0               	movwf	??___fladd
  4565  03D8  0850               	movf	??___fladd,w
  4566  03D9  07DA               	addwf	___fladd@bexp,f
  4567  03DA  2C67               	goto	l1679
  4568  03DB                     l1645:	
  4569  03DB  084B               	movf	___fladd@b+3,w
  4570  03DC  3A80               	xorlw	128
  4571  03DD  00D0               	movwf	??___fladd
  4572  03DE  084F               	movf	___fladd@a+3,w
  4573  03DF  3A80               	xorlw	128
  4574  03E0  0250               	subwf	??___fladd,w
  4575  03E1  1D03               	skipz
  4576  03E2  2BED               	goto	u1523
  4577  03E3  084E               	movf	___fladd@a+2,w
  4578  03E4  024A               	subwf	___fladd@b+2,w
  4579  03E5  1D03               	skipz
  4580  03E6  2BED               	goto	u1523
  4581  03E7  084D               	movf	___fladd@a+1,w
  4582  03E8  0249               	subwf	___fladd@b+1,w
  4583  03E9  1D03               	skipz
  4584  03EA  2BED               	goto	u1523
  4585  03EB  084C               	movf	___fladd@a,w
  4586  03EC  0248               	subwf	___fladd@b,w
  4587  03ED                     u1523:	
  4588  03ED  1803               	skipnc
  4589  03EE  2BF0               	goto	u1521
  4590  03EF  2BF1               	goto	u1520
  4591  03F0                     u1521:	
  4592  03F0  2C29               	goto	l1655
  4593  03F1                     u1520:	
  4594  03F1                     l1647:	
  4595  03F1  30FF               	movlw	255
  4596  03F2  00D0               	movwf	??___fladd
  4597  03F3  30FF               	movlw	255
  4598  03F4  00D1               	movwf	??___fladd+1
  4599  03F5  30FF               	movlw	255
  4600  03F6  00D2               	movwf	??___fladd+2
  4601  03F7  30FF               	movlw	255
  4602  03F8  00D3               	movwf	??___fladd+3
  4603  03F9  0848               	movf	___fladd@b,w
  4604  03FA  024C               	subwf	___fladd@a,w
  4605  03FB  00D4               	movwf	??___fladd+4
  4606  03FC  0849               	movf	___fladd@b+1,w
  4607  03FD  3B4D               	subwfb	___fladd@a+1,w
  4608  03FE  00D5               	movwf	??___fladd+5
  4609  03FF  084A               	movf	___fladd@b+2,w
  4610  0400  3B4E               	subwfb	___fladd@a+2,w
  4611  0401  00D6               	movwf	??___fladd+6
  4612  0402  084B               	movf	___fladd@b+3,w
  4613  0403  3B4F               	subwfb	___fladd@a+3,w
  4614  0404  00D7               	movwf	??___fladd+7
  4615  0405  0854               	movf	??___fladd+4,w
  4616  0406  07D0               	addwf	??___fladd,f
  4617  0407  0855               	movf	??___fladd+5,w
  4618  0408  3DD1               	addwfc	??___fladd+1,f
  4619  0409  0856               	movf	??___fladd+6,w
  4620  040A  3DD2               	addwfc	??___fladd+2,f
  4621  040B  0857               	movf	??___fladd+7,w
  4622  040C  3DD3               	addwfc	??___fladd+3,f
  4623  040D  0853               	movf	??___fladd+3,w
  4624  040E  00CB               	movwf	___fladd@b+3
  4625  040F  0852               	movf	??___fladd+2,w
  4626  0410  00CA               	movwf	___fladd@b+2
  4627  0411  0851               	movf	??___fladd+1,w
  4628  0412  00C9               	movwf	___fladd@b+1
  4629  0413  0850               	movf	??___fladd,w
  4630  0414  00C8               	movwf	___fladd@b
  4631  0415                     l1649:	
  4632  0415  3080               	movlw	128
  4633  0416  00D0               	movwf	??___fladd
  4634  0417  0850               	movf	??___fladd,w
  4635  0418  06D8               	xorwf	___fladd@signs,f
  4636  0419  09DB               	comf	___fladd@grs,f
  4637  041A  0ADB               	incf	___fladd@grs,f
  4638  041B                     l1651:	
  4639  041B  085B               	movf	___fladd@grs,w
  4640  041C  1D03               	btfss	3,2
  4641  041D  2C1F               	goto	u1531
  4642  041E  2C20               	goto	u1530
  4643  041F                     u1531:	
  4644  041F  2C31               	goto	l625
  4645  0420                     u1530:	
  4646  0420                     l1653:	
  4647  0420  3001               	movlw	1
  4648  0421  07C8               	addwf	___fladd@b,f
  4649  0422  3000               	movlw	0
  4650  0423  3DC9               	addwfc	___fladd@b+1,f
  4651  0424  3000               	movlw	0
  4652  0425  3DCA               	addwfc	___fladd@b+2,f
  4653  0426  3000               	movlw	0
  4654  0427  3DCB               	addwfc	___fladd@b+3,f
  4655  0428  2C31               	goto	l625
  4656  0429                     l1655:	
  4657  0429  084C               	movf	___fladd@a,w
  4658  042A  02C8               	subwf	___fladd@b,f
  4659  042B  084D               	movf	___fladd@a+1,w
  4660  042C  3BC9               	subwfb	___fladd@b+1,f
  4661  042D  084E               	movf	___fladd@a+2,w
  4662  042E  3BCA               	subwfb	___fladd@b+2,f
  4663  042F  084F               	movf	___fladd@a+3,w
  4664  0430  3BCB               	subwfb	___fladd@b+3,f
  4665  0431                     l625:	
  4666  0431  084B               	movf	___fladd@b+3,w
  4667  0432  044A               	iorwf	___fladd@b+2,w
  4668  0433  0449               	iorwf	___fladd@b+1,w
  4669  0434  0448               	iorwf	___fladd@b,w
  4670  0435  1D03               	skipz
  4671  0436  2C38               	goto	u1541
  4672  0437  2C39               	goto	u1540
  4673  0438                     u1541:	
  4674  0438  2C63               	goto	l1677
  4675  0439                     u1540:	
  4676  0439                     l1657:	
  4677  0439  085B               	movf	___fladd@grs,w
  4678  043A  1D03               	btfss	3,2
  4679  043B  2C3D               	goto	u1551
  4680  043C  2C3E               	goto	u1550
  4681  043D                     u1551:	
  4682  043D  2C63               	goto	l1677
  4683  043E                     u1550:	
  4684  043E                     l1659:	
  4685  043E  3000               	movlw	0
  4686  043F  00CB               	movwf	?___fladd+3
  4687  0440  3000               	movlw	0
  4688  0441  00CA               	movwf	?___fladd+2
  4689  0442  3000               	movlw	0
  4690  0443  00C9               	movwf	?___fladd+1
  4691  0444  3000               	movlw	0
  4692  0445  00C8               	movwf	?___fladd
  4693  0446  2CD7               	goto	l617
  4694  0447                     l1663:	
  4695  0447  3001               	movlw	1
  4696  0448                     u1565:	
  4697  0448  35C8               	lslf	___fladd@b,f
  4698  0449  0DC9               	rlf	___fladd@b+1,f
  4699  044A  0DCA               	rlf	___fladd@b+2,f
  4700  044B  0DCB               	rlf	___fladd@b+3,f
  4701  044C  0B89               	decfsz	9,f
  4702  044D  2C48               	goto	u1565
  4703  044E                     l1665:	
  4704  044E  1FDB               	btfss	___fladd@grs,7
  4705  044F  2C51               	goto	u1571
  4706  0450  2C52               	goto	u1570
  4707  0451                     u1571:	
  4708  0451  2C53               	goto	l629
  4709  0452                     u1570:	
  4710  0452                     l1667:	
  4711  0452  1448               	bsf	___fladd@b,0
  4712  0453                     l629:	
  4713  0453  1C5B               	btfss	___fladd@grs,0
  4714  0454  2C56               	goto	u1581
  4715  0455  2C57               	goto	u1580
  4716  0456                     u1581:	
  4717  0456  2C5A               	goto	l1671
  4718  0457                     u1580:	
  4719  0457                     l1669:	
  4720  0457  1403               	setc
  4721  0458  0DDB               	rlf	___fladd@grs,f
  4722  0459  2C5C               	goto	l1673
  4723  045A                     l1671:	
  4724  045A  1003               	clrc
  4725  045B  0DDB               	rlf	___fladd@grs,f
  4726  045C                     l1673:	
  4727  045C  085A               	movf	___fladd@bexp,w
  4728  045D  1903               	btfsc	3,2
  4729  045E  2C60               	goto	u1591
  4730  045F  2C61               	goto	u1590
  4731  0460                     u1591:	
  4732  0460  2C63               	goto	l1677
  4733  0461                     u1590:	
  4734  0461                     l1675:	
  4735  0461  3001               	movlw	1
  4736  0462  02DA               	subwf	___fladd@bexp,f
  4737  0463                     l1677:	
  4738  0463  1FCA               	btfss	___fladd@b+2,7
  4739  0464  2C66               	goto	u1601
  4740  0465  2C67               	goto	u1600
  4741  0466                     u1601:	
  4742  0466  2C47               	goto	l1663
  4743  0467                     u1600:	
  4744  0467                     l1679:	
  4745  0467  01D9               	clrf	___fladd@aexp
  4746  0468                     l1681:	
  4747  0468  1FDB               	btfss	___fladd@grs,7
  4748  0469  2C6B               	goto	u1611
  4749  046A  2C6C               	goto	u1610
  4750  046B                     u1611:	
  4751  046B  2C7A               	goto	l1689
  4752  046C                     u1610:	
  4753  046C                     l1683:	
  4754  046C  085B               	movf	___fladd@grs,w
  4755  046D  397F               	andlw	127
  4756  046E  1903               	btfsc	3,2
  4757  046F  2C71               	goto	u1621
  4758  0470  2C72               	goto	u1620
  4759  0471                     u1621:	
  4760  0471  2C75               	goto	l635
  4761  0472                     u1620:	
  4762  0472                     l1685:	
  4763  0472  01D9               	clrf	___fladd@aexp
  4764  0473  0AD9               	incf	___fladd@aexp,f
  4765  0474  2C7A               	goto	l1689
  4766  0475                     l635:	
  4767  0475  1C48               	btfss	___fladd@b,0
  4768  0476  2C78               	goto	u1631
  4769  0477  2C79               	goto	u1630
  4770  0478                     u1631:	
  4771  0478  2C7A               	goto	l1689
  4772  0479                     u1630:	
  4773  0479  2C72               	goto	l1685
  4774  047A                     l1689:	
  4775  047A  0859               	movf	___fladd@aexp,w
  4776  047B  1903               	btfsc	3,2
  4777  047C  2C7E               	goto	u1641
  4778  047D  2C7F               	goto	u1640
  4779  047E                     u1641:	
  4780  047E  2CAC               	goto	l638
  4781  047F                     u1640:	
  4782  047F                     l1691:	
  4783  047F  3001               	movlw	1
  4784  0480  07C8               	addwf	___fladd@b,f
  4785  0481  3000               	movlw	0
  4786  0482  3DC9               	addwfc	___fladd@b+1,f
  4787  0483  3000               	movlw	0
  4788  0484  3DCA               	addwfc	___fladd@b+2,f
  4789  0485  3000               	movlw	0
  4790  0486  3DCB               	addwfc	___fladd@b+3,f
  4791  0487                     l1693:	
  4792  0487  1C4B               	btfss	___fladd@b+3,0
  4793  0488  2C8A               	goto	u1651
  4794  0489  2C8B               	goto	u1650
  4795  048A                     u1651:	
  4796  048A  2CAC               	goto	l638
  4797  048B                     u1650:	
  4798  048B                     l1695:	
  4799  048B  0848               	movf	___fladd@b,w
  4800  048C  00D0               	movwf	??___fladd
  4801  048D  0849               	movf	___fladd@b+1,w
  4802  048E  00D1               	movwf	??___fladd+1
  4803  048F  084A               	movf	___fladd@b+2,w
  4804  0490  00D2               	movwf	??___fladd+2
  4805  0491  084B               	movf	___fladd@b+3,w
  4806  0492  00D3               	movwf	??___fladd+3
  4807  0493  3001               	movlw	1
  4808  0494  00D4               	movwf	??___fladd+4
  4809  0495                     u1665:	
  4810  0495  37D3               	asrf	??___fladd+3,f
  4811  0496  0CD2               	rrf	??___fladd+2,f
  4812  0497  0CD1               	rrf	??___fladd+1,f
  4813  0498  0CD0               	rrf	??___fladd,f
  4814  0499                     u1660:	
  4815  0499  0BD4               	decfsz	??___fladd+4,f
  4816  049A  2C95               	goto	u1665
  4817  049B  0853               	movf	??___fladd+3,w
  4818  049C  00CB               	movwf	___fladd@b+3
  4819  049D  0852               	movf	??___fladd+2,w
  4820  049E  00CA               	movwf	___fladd@b+2
  4821  049F  0851               	movf	??___fladd+1,w
  4822  04A0  00C9               	movwf	___fladd@b+1
  4823  04A1  0850               	movf	??___fladd,w
  4824  04A2  00C8               	movwf	___fladd@b
  4825  04A3  0A5A               	incf	___fladd@bexp,w
  4826  04A4  1903               	btfsc	3,2
  4827  04A5  2CA7               	goto	u1671
  4828  04A6  2CA8               	goto	u1670
  4829  04A7                     u1671:	
  4830  04A7  2CAC               	goto	l638
  4831  04A8                     u1670:	
  4832  04A8                     l1697:	
  4833  04A8  3001               	movlw	1
  4834  04A9  00D0               	movwf	??___fladd
  4835  04AA  0850               	movf	??___fladd,w
  4836  04AB  07DA               	addwf	___fladd@bexp,f
  4837  04AC                     l638:	
  4838  04AC  0A5A               	incf	___fladd@bexp,w
  4839  04AD  1903               	btfsc	3,2
  4840  04AE  2CB0               	goto	u1681
  4841  04AF  2CB1               	goto	u1680
  4842  04B0                     u1681:	
  4843  04B0  2CB6               	goto	l1701
  4844  04B1                     u1680:	
  4845  04B1                     l1699:	
  4846  04B1  085A               	movf	___fladd@bexp,w
  4847  04B2  1D03               	btfss	3,2
  4848  04B3  2CB5               	goto	u1691
  4849  04B4  2CB6               	goto	u1690
  4850  04B5                     u1691:	
  4851  04B5  2CC4               	goto	l1707
  4852  04B6                     u1690:	
  4853  04B6                     l1701:	
  4854  04B6  3000               	movlw	0
  4855  04B7  00CB               	movwf	___fladd@b+3
  4856  04B8  3000               	movlw	0
  4857  04B9  00CA               	movwf	___fladd@b+2
  4858  04BA  3000               	movlw	0
  4859  04BB  00C9               	movwf	___fladd@b+1
  4860  04BC  3000               	movlw	0
  4861  04BD  00C8               	movwf	___fladd@b
  4862  04BE                     l1703:	
  4863  04BE  085A               	movf	___fladd@bexp,w
  4864  04BF  1D03               	btfss	3,2
  4865  04C0  2CC2               	goto	u1701
  4866  04C1  2CC3               	goto	u1700
  4867  04C2                     u1701:	
  4868  04C2  2CC4               	goto	l1707
  4869  04C3                     u1700:	
  4870  04C3                     l1705:	
  4871  04C3  01D8               	clrf	___fladd@signs
  4872  04C4                     l1707:	
  4873  04C4  1C5A               	btfss	___fladd@bexp,0
  4874  04C5  2CC7               	goto	u1711
  4875  04C6  2CC8               	goto	u1710
  4876  04C7                     u1711:	
  4877  04C7  2CCA               	goto	l1711
  4878  04C8                     u1710:	
  4879  04C8                     l1709:	
  4880  04C8  17CA               	bsf	___fladd@b+2,7
  4881  04C9  2CCE               	goto	l646
  4882  04CA                     l1711:	
  4883  04CA  307F               	movlw	127
  4884  04CB  00D0               	movwf	??___fladd
  4885  04CC  0850               	movf	??___fladd,w
  4886  04CD  05CA               	andwf	___fladd@b+2,f
  4887  04CE                     l646:	
  4888  04CE  365A               	lsrf	___fladd@bexp,w
  4889  04CF  00D0               	movwf	??___fladd
  4890  04D0  0850               	movf	??___fladd,w
  4891  04D1  00CB               	movwf	___fladd@b+3
  4892  04D2                     l1713:	
  4893  04D2  1FD8               	btfss	___fladd@signs,7
  4894  04D3  2CD5               	goto	u1721
  4895  04D4  2CD6               	goto	u1720
  4896  04D5                     u1721:	
  4897  04D5  2CD7               	goto	l647
  4898  04D6                     u1720:	
  4899  04D6                     l1715:	
  4900  04D6  17CB               	bsf	___fladd@b+3,7
  4901  04D7                     l647:	
  4902  04D7                     l617:	
  4903  04D7  0008               	return
  4904  04D8                     __end_of___fladd:	
  4905                           
  4906                           	psect	text11
  4907  0DD6                     __ptext11:	
  4908 ;; *************** function _ConfigTimers *****************
  4909 ;; Defined at:
  4910 ;;		line 92 in file "TX_main.c"
  4911 ;; Parameters:    Size  Location     Type
  4912 ;;		None
  4913 ;; Auto vars:     Size  Location     Type
  4914 ;;		None
  4915 ;; Return value:  Size  Location     Type
  4916 ;;                  1    wreg      void 
  4917 ;; Registers used:
  4918 ;;		wreg, status,2, status,0
  4919 ;; Tracked objects:
  4920 ;;		On entry : 0/0
  4921 ;;		On exit  : 0/0
  4922 ;;		Unchanged: 0/0
  4923 ;; Data sizes:     COMMON   BANK0   BANK1   BANK2   BANK3   BANK4   BANK5   BANK6
  4924 ;;      Params:         0       0       0       0       0       0       0       0
  4925 ;;      Locals:         0       0       0       0       0       0       0       0
  4926 ;;      Temps:          0       0       0       0       0       0       0       0
  4927 ;;      Totals:         0       0       0       0       0       0       0       0
  4928 ;;Total ram usage:        0 bytes
  4929 ;; Hardware stack levels used:    1
  4930 ;; Hardware stack levels required when called:    1
  4931 ;; This function calls:
  4932 ;;		Nothing
  4933 ;; This function is called by:
  4934 ;;		_main
  4935 ;; This function uses a non-reentrant model
  4936 ;;
  4937                           
  4938                           
  4939                           ;psect for function _ConfigTimers
  4940  0DD6                     _ConfigTimers:	
  4941  0DD6                     l2015:	
  4942                           ;incstack = 0
  4943                           ; Regs used in _ConfigTimers: [wreg+status,2+status,0]
  4944                           
  4945                           
  4946                           ;TX_main.c: 93:     T0CON0bits.T0EN = 1;
  4947  0DD6  0020               	movlb	0	; select bank0
  4948  0DD7  1797               	bsf	23,7	;volatile
  4949                           
  4950                           ;TX_main.c: 94:     T0CON0bits.T016BIT = 1;
  4951  0DD8  1617               	bsf	23,4	;volatile
  4952  0DD9                     l2017:	
  4953                           
  4954                           ;TX_main.c: 95:     T0CON1bits.T0CS = 0b010;
  4955  0DD9  0818               	movf	24,w	;volatile
  4956  0DDA  391F               	andlw	-225
  4957  0DDB  3840               	iorlw	64
  4958  0DDC  0098               	movwf	24	;volatile
  4959  0DDD                     l2019:	
  4960                           
  4961                           ;TX_main.c: 96:     T0CON1bits.T0ASYNC = 0 ;
  4962  0DDD  1218               	bcf	24,4	;volatile
  4963                           
  4964                           ;TX_main.c: 97:     T0CON1bits.T0CKPS = 0b1010;
  4965  0DDE  0818               	movf	24,w	;volatile
  4966  0DDF  39F0               	andlw	-16
  4967  0DE0  380A               	iorlw	10
  4968  0DE1  0098               	movwf	24	;volatile
  4969  0DE2                     l2021:	
  4970                           
  4971                           ;TX_main.c: 99:     TMR0Lbits.TMR0L = 0b00000000;
  4972  0DE2  0195               	clrf	21	;volatile
  4973  0DE3                     l2023:	
  4974                           
  4975                           ;TX_main.c: 100:     TMR0Hbits.TMR0H = 0b00000000;
  4976  0DE3  0196               	clrf	22	;volatile
  4977  0DE4                     l143:	
  4978  0DE4  0008               	return
  4979  0DE5                     __end_of_ConfigTimers:	
  4980                           
  4981                           	psect	text12
  4982  0DC9                     __ptext12:	
  4983 ;; *************** function _ConfigInterrupts *****************
  4984 ;; Defined at:
  4985 ;;		line 74 in file "TX_main.c"
  4986 ;; Parameters:    Size  Location     Type
  4987 ;;		None
  4988 ;; Auto vars:     Size  Location     Type
  4989 ;;		None
  4990 ;; Return value:  Size  Location     Type
  4991 ;;                  1    wreg      void 
  4992 ;; Registers used:
  4993 ;;		wreg, status,2, status,0
  4994 ;; Tracked objects:
  4995 ;;		On entry : 0/0
  4996 ;;		On exit  : 0/0
  4997 ;;		Unchanged: 0/0
  4998 ;; Data sizes:     COMMON   BANK0   BANK1   BANK2   BANK3   BANK4   BANK5   BANK6
  4999 ;;      Params:         0       0       0       0       0       0       0       0
  5000 ;;      Locals:         0       0       0       0       0       0       0       0
  5001 ;;      Temps:          0       0       0       0       0       0       0       0
  5002 ;;      Totals:         0       0       0       0       0       0       0       0
  5003 ;;Total ram usage:        0 bytes
  5004 ;; Hardware stack levels used:    1
  5005 ;; Hardware stack levels required when called:    1
  5006 ;; This function calls:
  5007 ;;		Nothing
  5008 ;; This function is called by:
  5009 ;;		_main
  5010 ;; This function uses a non-reentrant model
  5011 ;;
  5012                           
  5013                           
  5014                           ;psect for function _ConfigInterrupts
  5015  0DC9                     _ConfigInterrupts:	
  5016  0DC9                     l2007:	
  5017                           ;incstack = 0
  5018                           ; Regs used in _ConfigInterrupts: [wreg+status,2+status,0]
  5019                           
  5020                           
  5021                           ;TX_main.c: 77:     INTCONbits.PEIE = 1;
  5022  0DC9  170B               	bsf	11,6	;volatile
  5023                           
  5024                           ;TX_main.c: 78:     INTCONbits.INTEDG = 0;
  5025  0DCA  100B               	bcf	11,0	;volatile
  5026                           
  5027                           ;TX_main.c: 81:     PIE0bits.INTE = 1 ;
  5028  0DCB  0021               	movlb	1	; select bank1
  5029  0DCC  1410               	bsf	16,0	;volatile
  5030  0DCD                     l2009:	
  5031                           
  5032                           ;TX_main.c: 83:     INTPPSbits.INTPPS = 0b00000010;
  5033  0DCD  003C               	movlb	28	; select bank28
  5034  0DCE  0810               	movf	16,w	;volatile
  5035  0DCF  39E0               	andlw	-32
  5036  0DD0  3802               	iorlw	2
  5037  0DD1  0090               	movwf	16	;volatile
  5038  0DD2                     l2011:	
  5039                           
  5040                           ;TX_main.c: 85:     PIR0bits.INTF = 0 ;
  5041  0DD2  0020               	movlb	0	; select bank0
  5042  0DD3  1010               	bcf	16,0	;volatile
  5043  0DD4                     l2013:	
  5044                           
  5045                           ;TX_main.c: 87:     INTCONbits.GIE = 1;
  5046  0DD4  178B               	bsf	11,7	;volatile
  5047  0DD5                     l140:	
  5048  0DD5  0008               	return
  5049  0DD6                     __end_of_ConfigInterrupts:	
  5050                           
  5051                           	psect	text13
  5052  0DE5                     __ptext13:	
  5053 ;; *************** function _ADC_Read *****************
  5054 ;; Defined at:
  5055 ;;		line 23 in file "./ADC.h"
  5056 ;; Parameters:    Size  Location     Type
  5057 ;;  channel         2    2[COMMON] int 
  5058 ;; Auto vars:     Size  Location     Type
  5059 ;;  val             2    6[COMMON] int 
  5060 ;; Return value:  Size  Location     Type
  5061 ;;                  2    2[COMMON] int 
  5062 ;; Registers used:
  5063 ;;		wreg, status,2, status,0
  5064 ;; Tracked objects:
  5065 ;;		On entry : 0/0
  5066 ;;		On exit  : 0/0
  5067 ;;		Unchanged: 0/0
  5068 ;; Data sizes:     COMMON   BANK0   BANK1   BANK2   BANK3   BANK4   BANK5   BANK6
  5069 ;;      Params:         2       0       0       0       0       0       0       0
  5070 ;;      Locals:         2       0       0       0       0       0       0       0
  5071 ;;      Temps:          2       0       0       0       0       0       0       0
  5072 ;;      Totals:         6       0       0       0       0       0       0       0
  5073 ;;Total ram usage:        6 bytes
  5074 ;; Hardware stack levels used:    1
  5075 ;; Hardware stack levels required when called:    1
  5076 ;; This function calls:
  5077 ;;		Nothing
  5078 ;; This function is called by:
  5079 ;;		_main
  5080 ;; This function uses a non-reentrant model
  5081 ;;
  5082                           
  5083                           
  5084                           ;psect for function _ADC_Read
  5085  0DE5                     _ADC_Read:	
  5086  0DE5                     l1983:	
  5087                           ;incstack = 0
  5088                           ; Regs used in _ADC_Read: [wreg+status,2+status,0]
  5089                           
  5090  0DE5                     l1985:	
  5091                           
  5092                           ;./ADC.h: 25:     ADCON0 &= 0b00000001;
  5093  0DE5  3001               	movlw	1
  5094  0DE6  00F4               	movwf	??_ADC_Read
  5095  0DE7  0874               	movf	??_ADC_Read,w
  5096  0DE8  0021               	movlb	1	; select bank1
  5097  0DE9  059D               	andwf	29,f	;volatile
  5098  0DEA                     l1987:	
  5099                           
  5100                           ;./ADC.h: 26:     ADCON0 |= channel<<2;
  5101  0DEA  0872               	movf	ADC_Read@channel,w	;volatile
  5102  0DEB  00F4               	movwf	??_ADC_Read
  5103  0DEC  3001               	movlw	1
  5104  0DED                     u2165:	
  5105  0DED  35F4               	lslf	??_ADC_Read,f
  5106  0DEE  3EFF               	addlw	-1
  5107  0DEF  1D03               	skipz
  5108  0DF0  2DED               	goto	u2165
  5109  0DF1  3574               	lslf	??_ADC_Read,w
  5110  0DF2  00F5               	movwf	??_ADC_Read+1
  5111  0DF3  0875               	movf	??_ADC_Read+1,w
  5112  0DF4  049D               	iorwf	29,f	;volatile
  5113  0DF5                     l1989:	
  5114                           
  5115                           ;./ADC.h: 27:     ADCON0bits.GO_nDONE = 1;
  5116  0DF5  149D               	bsf	29,1	;volatile
  5117  0DF6                     l104:	
  5118                           ;./ADC.h: 28:     while (ADCON0bits.GO_nDONE);
  5119                           
  5120  0DF6  189D               	btfsc	29,1	;volatile
  5121  0DF7  2DF9               	goto	u2171
  5122  0DF8  2DFA               	goto	u2170
  5123  0DF9                     u2171:	
  5124  0DF9  2DF6               	goto	l104
  5125  0DFA                     u2170:	
  5126  0DFA                     l1991:	
  5127                           
  5128                           ;./ADC.h: 29:     val = (ADRESH<<8)+ADRESL;
  5129  0DFA  081C               	movf	28,w	;volatile
  5130  0DFB  00F7               	movwf	ADC_Read@val+1
  5131  0DFC  081B               	movf	27,w	;volatile
  5132  0DFD  00F6               	movwf	ADC_Read@val
  5133                           
  5134                           ;./ADC.h: 30:     return val;
  5135  0DFE  0877               	movf	ADC_Read@val+1,w
  5136  0DFF  00F3               	movwf	?_ADC_Read+1
  5137  0E00  0876               	movf	ADC_Read@val,w
  5138  0E01  00F2               	movwf	?_ADC_Read
  5139  0E02                     l107:	
  5140  0E02  0008               	return
  5141  0E03                     __end_of_ADC_Read:	
  5142                           
  5143                           	psect	text14
  5144  0DC1                     __ptext14:	
  5145 ;; *************** function _ADC_Init *****************
  5146 ;; Defined at:
  5147 ;;		line 16 in file "./ADC.h"
  5148 ;; Parameters:    Size  Location     Type
  5149 ;;		None
  5150 ;; Auto vars:     Size  Location     Type
  5151 ;;		None
  5152 ;; Return value:  Size  Location     Type
  5153 ;;                  1    wreg      void 
  5154 ;; Registers used:
  5155 ;;		wreg, status,2
  5156 ;; Tracked objects:
  5157 ;;		On entry : 0/0
  5158 ;;		On exit  : 0/0
  5159 ;;		Unchanged: 0/0
  5160 ;; Data sizes:     COMMON   BANK0   BANK1   BANK2   BANK3   BANK4   BANK5   BANK6
  5161 ;;      Params:         0       0       0       0       0       0       0       0
  5162 ;;      Locals:         0       0       0       0       0       0       0       0
  5163 ;;      Temps:          0       0       0       0       0       0       0       0
  5164 ;;      Totals:         0       0       0       0       0       0       0       0
  5165 ;;Total ram usage:        0 bytes
  5166 ;; Hardware stack levels used:    1
  5167 ;; Hardware stack levels required when called:    1
  5168 ;; This function calls:
  5169 ;;		Nothing
  5170 ;; This function is called by:
  5171 ;;		_main
  5172 ;; This function uses a non-reentrant model
  5173 ;;
  5174                           
  5175                           
  5176                           ;psect for function _ADC_Init
  5177  0DC1                     _ADC_Init:	
  5178  0DC1                     l1977:	
  5179                           ;incstack = 0
  5180                           ; Regs used in _ADC_Init: [wreg+status,2]
  5181                           
  5182                           
  5183                           ;./ADC.h: 17:     ADCON1 = 0b11110000;
  5184  0DC1  30F0               	movlw	240
  5185  0DC2  0021               	movlb	1	; select bank1
  5186  0DC3  009E               	movwf	30	;volatile
  5187                           
  5188                           ;./ADC.h: 18:     ADCON0 = 0b00000001;
  5189  0DC4  3001               	movlw	1
  5190  0DC5  009D               	movwf	29	;volatile
  5191  0DC6                     l1979:	
  5192                           
  5193                           ;./ADC.h: 19:     ADRESH = 0;
  5194  0DC6  019C               	clrf	28	;volatile
  5195  0DC7                     l1981:	
  5196                           
  5197                           ;./ADC.h: 20:     ADRESL = 0;
  5198  0DC7  019B               	clrf	27	;volatile
  5199  0DC8                     l101:	
  5200  0DC8  0008               	return
  5201  0DC9                     __end_of_ADC_Init:	
  5202                           
  5203                           	psect	intentry
  5204  0004                     __pintentry:	
  5205 ;; *************** function _HighIsr *****************
  5206 ;; Defined at:
  5207 ;;		line 103 in file "TX_main.c"
  5208 ;; Parameters:    Size  Location     Type
  5209 ;;		None
  5210 ;; Auto vars:     Size  Location     Type
  5211 ;;		None
  5212 ;; Return value:  Size  Location     Type
  5213 ;;                  1    wreg      void 
  5214 ;; Registers used:
  5215 ;;		wreg, status,2, status,0
  5216 ;; Tracked objects:
  5217 ;;		On entry : 0/0
  5218 ;;		On exit  : 0/0
  5219 ;;		Unchanged: 0/0
  5220 ;; Data sizes:     COMMON   BANK0   BANK1   BANK2   BANK3   BANK4   BANK5   BANK6
  5221 ;;      Params:         0       0       0       0       0       0       0       0
  5222 ;;      Locals:         0       0       0       0       0       0       0       0
  5223 ;;      Temps:          2       0       0       0       0       0       0       0
  5224 ;;      Totals:         2       0       0       0       0       0       0       0
  5225 ;;Total ram usage:        2 bytes
  5226 ;; Hardware stack levels used:    1
  5227 ;; This function calls:
  5228 ;;		Nothing
  5229 ;; This function is called by:
  5230 ;;		Interrupt level 1
  5231 ;; This function uses a non-reentrant model
  5232 ;;
  5233                           
  5234  0004                     _HighIsr:	
  5235                           
  5236                           ;incstack = 0
  5237  0004  147E               	bsf	int$flags,0	;set compiler interrupt flag (level 1)
  5238                           
  5239                           ; Regs used in _HighIsr: [wreg+status,2+status,0]
  5240  0005  3180               	pagesel	$
  5241  0006                     i1l2125:	
  5242                           
  5243                           ;TX_main.c: 105:     if ( PIR0bits.INTF == 1) {
  5244  0006  0020               	movlb	0	; select bank0
  5245  0007  1C10               	btfss	16,0	;volatile
  5246  0008  280A               	goto	u231_21
  5247  0009  280B               	goto	u231_20
  5248  000A                     u231_21:	
  5249  000A  282F               	goto	i1l151
  5250  000B                     u231_20:	
  5251  000B                     i1l2127:	
  5252                           
  5253                           ;TX_main.c: 106:         if(wind_set == 0) {
  5254  000B  087A               	movf	_wind_set,w
  5255  000C  047B               	iorwf	_wind_set+1,w
  5256  000D  1D03               	btfss	3,2
  5257  000E  2810               	goto	u232_21
  5258  000F  2811               	goto	u232_20
  5259  0010                     u232_21:	
  5260  0010  2819               	goto	i1l149
  5261  0011                     u232_20:	
  5262  0011                     i1l2129:	
  5263                           
  5264                           ;TX_main.c: 107:           RA5 = 1;
  5265  0011  168C               	bsf	12,5	;volatile
  5266  0012                     i1l2131:	
  5267                           
  5268                           ;TX_main.c: 109:             wind_set = 1;
  5269  0012  3001               	movlw	1
  5270  0013  00FA               	movwf	_wind_set
  5271  0014  3000               	movlw	0
  5272  0015  00FB               	movwf	_wind_set+1
  5273  0016                     i1l2133:	
  5274                           
  5275                           ;TX_main.c: 110:             TMR0L = 0;
  5276  0016  0195               	clrf	21	;volatile
  5277  0017                     i1l2135:	
  5278                           
  5279                           ;TX_main.c: 111:             TMR0H = 0;
  5280  0017  0196               	clrf	22	;volatile
  5281                           
  5282                           ;TX_main.c: 112:         }
  5283  0018  282D               	goto	i1l2143
  5284  0019                     i1l149:	
  5285                           ;TX_main.c: 113:         else{
  5286                           
  5287                           
  5288                           ;TX_main.c: 114:           RA5 = 0;
  5289  0019  128C               	bcf	12,5	;volatile
  5290  001A                     i1l2137:	
  5291                           
  5292                           ;TX_main.c: 115:             wind_set = 0;
  5293  001A  01FA               	clrf	_wind_set
  5294  001B  01FB               	clrf	_wind_set+1
  5295  001C                     i1l2139:	
  5296                           
  5297                           ;TX_main.c: 116:             wind_time_low = TMR0L;
  5298  001C  0815               	movf	21,w	;volatile
  5299  001D  00F0               	movwf	??_HighIsr
  5300  001E  01F1               	clrf	??_HighIsr+1
  5301  001F  0870               	movf	??_HighIsr,w
  5302  0020  0021               	movlb	1	; select bank1
  5303  0021  00EC               	movwf	_wind_time_low^(0+128)
  5304  0022  0871               	movf	??_HighIsr+1,w
  5305  0023  00ED               	movwf	(_wind_time_low+1)^(0+128)
  5306  0024                     i1l2141:	
  5307                           
  5308                           ;TX_main.c: 117:             wind_time_high = TMR0H;
  5309  0024  0020               	movlb	0	; select bank0
  5310  0025  0816               	movf	22,w	;volatile
  5311  0026  00F0               	movwf	??_HighIsr
  5312  0027  01F1               	clrf	??_HighIsr+1
  5313  0028  0870               	movf	??_HighIsr,w
  5314  0029  0021               	movlb	1	; select bank1
  5315  002A  00EA               	movwf	_wind_time_high^(0+128)
  5316  002B  0871               	movf	??_HighIsr+1,w
  5317  002C  00EB               	movwf	(_wind_time_high+1)^(0+128)
  5318  002D                     i1l2143:	
  5319                           
  5320                           ;TX_main.c: 121:        PIR0bits.INTF = 0;
  5321  002D  0020               	movlb	0	; select bank0
  5322  002E  1010               	bcf	16,0	;volatile
  5323  002F                     i1l151:	
  5324  002F  107E               	bcf	int$flags,0	;clear compiler interrupt flag (level 1)
  5325  0030  0009               	retfie
  5326  0031                     __end_of_HighIsr:	
  5327  007E                     btemp	set	126	;btemp
  5328  007E                     int$flags	set	126
  5329  007E                     wtemp0	set	126


Data Sizes:
    Strings     0
    Constant    2
    Data        0
    BSS         68
    Persistent  32
    Stack       0

Auto Spaces:
    Space          Size  Autos    Used
    COMMON           14     10      12
    BANK0            80     75      75
    BANK1            80     70      78
    BANK2            80      0      58
    BANK3            80      0       0
    BANK4            80      0       0
    BANK5            80      0       0
    BANK6            16      0       0

Pointer List with Targets:

    None.

Critical Paths under _main in COMMON

    _main->_Send_DTMF_pack
    _main->___fltol
    _Temp_Conv->___fltol
    _Send_DTMF_pack->_nib_to_DTMF
    _Pres_Conv->___fltol
    ___xxtofl->_ADC_Read

Critical Paths under _HighIsr in COMMON

    None.

Critical Paths under _main in BANK0

    _main->_Pres_Conv
    _main->_Temp_Conv
    _Temp_Conv->___fltol
    _Pres_Conv->___fltol
    ___fltol->___fladd
    ___flmul->___xxtofl
    ___fladd->___flmul

Critical Paths under _HighIsr in BANK0

    None.

Critical Paths under _main in BANK1

    None.

Critical Paths under _HighIsr in BANK1

    None.

Critical Paths under _main in BANK2

    None.

Critical Paths under _HighIsr in BANK2

    None.

Critical Paths under _main in BANK3

    None.

Critical Paths under _HighIsr in BANK3

    None.

Critical Paths under _main in BANK4

    None.

Critical Paths under _HighIsr in BANK4

    None.

Critical Paths under _main in BANK5

    None.

Critical Paths under _HighIsr in BANK5

    None.

Critical Paths under _main in BANK6

    None.

Critical Paths under _HighIsr in BANK6

    None.

Call Graph Tables:

 ---------------------------------------------------------------------------------
 (Depth) Function   	        Calls       Base Space   Used Autos Params    Refs
 ---------------------------------------------------------------------------------
 (0) _main                                                72    72      0   19420
                                             73 BANK0      2     2      0
                                              0 BANK1     70    70      0
                           _ADC_Init
                           _ADC_Read
                   _ConfigInterrupts
                       _ConfigTimers
                          _Pres_Conv
                     _Send_DTMF_pack
                          _Temp_Conv
                            ___awdiv
                            ___fltol
                           ___xxtofl
 ---------------------------------------------------------------------------------
 (1) ___awdiv                                              9     5      4     805
                                              2 COMMON     5     1      4
                                              0 BANK0      4     4      0
 ---------------------------------------------------------------------------------
 (1) _Temp_Conv                                            4     2      2    7635
                                             69 BANK0      4     2      2
                            ___fladd
                            ___flmul
                            ___fltol
                           ___xxtofl
 ---------------------------------------------------------------------------------
 (1) _Send_DTMF_pack                                      13     7      6    1129
                                              4 COMMON     6     0      6
                                              0 BANK0      7     7      0
                        _nib_to_DTMF
 ---------------------------------------------------------------------------------
 (2) _nib_to_DTMF                                          2     0      2     630
                                              2 COMMON     2     0      2
 ---------------------------------------------------------------------------------
 (1) _Pres_Conv                                            4     2      2    7635
                                             69 BANK0      4     2      2
                            ___fladd
                            ___flmul
                            ___fltol
                           ___xxtofl
 ---------------------------------------------------------------------------------
 (1) ___xxtofl                                            14    10      4     836
                                              0 BANK0     14    10      4
                           _ADC_Read (ARG)
 ---------------------------------------------------------------------------------
 (1) ___fltol                                             11     7      4     697
                                              8 COMMON     2     2      0
                                             60 BANK0      9     5      4
                            ___fladd (ARG)
                            ___flmul (ARG)
                           ___xxtofl (ARG)
 ---------------------------------------------------------------------------------
 (2) ___flmul                                             26    18      8    3533
                                             14 BANK0     26    18      8
                          __Umul8_16
                           ___xxtofl (ARG)
 ---------------------------------------------------------------------------------
 (3) __Umul8_16                                            9     7      2     980
                                              2 COMMON     4     2      2
                                              0 BANK0      5     5      0
 ---------------------------------------------------------------------------------
 (2) ___fladd                                             20    12      8    2414
                                             40 BANK0     20    12      8
                            ___flmul (ARG)
                           ___xxtofl (ARG)
 ---------------------------------------------------------------------------------
 (1) _ConfigTimers                                         0     0      0       0
 ---------------------------------------------------------------------------------
 (1) _ConfigInterrupts                                     0     0      0       0
 ---------------------------------------------------------------------------------
 (1) _ADC_Read                                             6     4      2     198
                                              2 COMMON     6     4      2
 ---------------------------------------------------------------------------------
 (1) _ADC_Init                                             0     0      0       0
 ---------------------------------------------------------------------------------
 Estimated maximum stack depth 3
 ---------------------------------------------------------------------------------
 (Depth) Function   	        Calls       Base Space   Used Autos Params    Refs
 ---------------------------------------------------------------------------------
 (4) _HighIsr                                              2     2      0       0
                                              0 COMMON     2     2      0
 ---------------------------------------------------------------------------------
 Estimated maximum stack depth 4
 ---------------------------------------------------------------------------------

 Call Graph Graphs:

 _main (ROOT)
   _ADC_Init
   _ADC_Read
   _ConfigInterrupts
   _ConfigTimers
   _Pres_Conv
     ___fladd
       ___flmul (ARG)
         __Umul8_16
         ___xxtofl (ARG)
           _ADC_Read (ARG)
       ___xxtofl (ARG)
         _ADC_Read (ARG)
     ___flmul
       __Umul8_16
       ___xxtofl (ARG)
         _ADC_Read (ARG)
     ___fltol
       ___fladd (ARG)
         ___flmul (ARG)
           __Umul8_16
           ___xxtofl (ARG)
             _ADC_Read (ARG)
         ___xxtofl (ARG)
           _ADC_Read (ARG)
       ___flmul (ARG)
         __Umul8_16
         ___xxtofl (ARG)
           _ADC_Read (ARG)
       ___xxtofl (ARG)
         _ADC_Read (ARG)
     ___xxtofl
       _ADC_Read (ARG)
   _Send_DTMF_pack
     _nib_to_DTMF
   _Temp_Conv
     ___fladd
       ___flmul (ARG)
         __Umul8_16
         ___xxtofl (ARG)
           _ADC_Read (ARG)
       ___xxtofl (ARG)
         _ADC_Read (ARG)
     ___flmul
       __Umul8_16
       ___xxtofl (ARG)
         _ADC_Read (ARG)
     ___fltol
       ___fladd (ARG)
         ___flmul (ARG)
           __Umul8_16
           ___xxtofl (ARG)
             _ADC_Read (ARG)
         ___xxtofl (ARG)
           _ADC_Read (ARG)
       ___flmul (ARG)
         __Umul8_16
         ___xxtofl (ARG)
           _ADC_Read (ARG)
       ___xxtofl (ARG)
         _ADC_Read (ARG)
     ___xxtofl
       _ADC_Read (ARG)
   ___awdiv
   ___fltol
     ___fladd (ARG)
       ___flmul (ARG)
         __Umul8_16
         ___xxtofl (ARG)
           _ADC_Read (ARG)
       ___xxtofl (ARG)
         _ADC_Read (ARG)
     ___flmul (ARG)
       __Umul8_16
       ___xxtofl (ARG)
         _ADC_Read (ARG)
     ___xxtofl (ARG)
       _ADC_Read (ARG)
   ___xxtofl
     _ADC_Read (ARG)

 _HighIsr (ROOT)

 Address spaces:
Name               Size   Autos  Total    Cost      Usage
BIGRAM             1F0      0       0       0        0.0%
EEDATA             100      0       0       0        0.0%
NULL                 0      0       0       0        0.0%
CODE                 0      0       0       0        0.0%
BITCOMMON            E      0       0       1        0.0%
BITSFR0              0      0       0       1        0.0%
SFR0                 0      0       0       1        0.0%
COMMON               E      A       C       2       85.7%
BITSFR1              0      0       0       2        0.0%
SFR1                 0      0       0       2        0.0%
BITSFR2              0      0       0       3        0.0%
SFR2                 0      0       0       3        0.0%
STACK                0      0       0       3        0.0%
BITSFR3              0      0       0       4        0.0%
SFR3                 0      0       0       4        0.0%
ABS                  0      0      DF       4        0.0%
BITBANK0            50      0       0       5        0.0%
BITSFR4              0      0       0       5        0.0%
SFR4                 0      0       0       5        0.0%
BANK0               50     4B      4B       6       93.8%
BITSFR5              0      0       0       6        0.0%
SFR5                 0      0       0       6        0.0%
BITBANK1            50      0       0       7        0.0%
BITSFR6              0      0       0       7        0.0%
SFR6                 0      0       0       7        0.0%
BANK1               50     46      4E       8       97.5%
BITSFR7              0      0       0       8        0.0%
SFR7                 0      0       0       8        0.0%
BITBANK2            50      0       0       9        0.0%
BITSFR8              0      0       0       9        0.0%
SFR8                 0      0       0       9        0.0%
BANK2               50      0      3A      10       72.5%
BITSFR9              0      0       0      10        0.0%
SFR9                 0      0       0      10        0.0%
BITBANK3            50      0       0      11        0.0%
BITSFR10             0      0       0      11        0.0%
SFR10                0      0       0      11        0.0%
BANK3               50      0       0      12        0.0%
BITSFR11             0      0       0      12        0.0%
SFR11                0      0       0      12        0.0%
BITBANK4            50      0       0      13        0.0%
BITSFR12             0      0       0      13        0.0%
SFR12                0      0       0      13        0.0%
BANK4               50      0       0      14        0.0%
BITSFR13             0      0       0      14        0.0%
SFR13                0      0       0      14        0.0%
BITBANK5            50      0       0      15        0.0%
BITSFR14             0      0       0      15        0.0%
SFR14                0      0       0      15        0.0%
BANK5               50      0       0      16        0.0%
BITSFR15             0      0       0      16        0.0%
SFR15                0      0       0      16        0.0%
BITBANK6            10      0       0      17        0.0%
BITSFR16             0      0       0      17        0.0%
SFR16                0      0       0      17        0.0%
BANK6               10      0       0      18        0.0%
BITSFR17             0      0       0      18        0.0%
SFR17                0      0       0      18        0.0%
BITSFR18             0      0       0      19        0.0%
SFR18                0      0       0      19        0.0%
DATA                 0      0      DF      19        0.0%
BITSFR19             0      0       0      20        0.0%
SFR19                0      0       0      20        0.0%
BITSFR20             0      0       0      21        0.0%
SFR20                0      0       0      21        0.0%
BITSFR21             0      0       0      22        0.0%
SFR21                0      0       0      22        0.0%
BITSFR22             0      0       0      23        0.0%
SFR22                0      0       0      23        0.0%
BITSFR23             0      0       0      24        0.0%
SFR23                0      0       0      24        0.0%
BITSFR24             0      0       0      25        0.0%
SFR24                0      0       0      25        0.0%
BITSFR25             0      0       0      26        0.0%
SFR25                0      0       0      26        0.0%
BITSFR26             0      0       0      27        0.0%
SFR26                0      0       0      27        0.0%
BITSFR27             0      0       0      28        0.0%
SFR27                0      0       0      28        0.0%
BITSFR28             0      0       0      29        0.0%
SFR28                0      0       0      29        0.0%
BITSFR29             0      0       0      30        0.0%
SFR29                0      0       0      30        0.0%
BITSFR30             0      0       0      31        0.0%
SFR30                0      0       0      31        0.0%
BITSFR31             0      0       0      32        0.0%
SFR31                0      0       0      32        0.0%


Microchip Technology PIC Macro Assembler V2.10 build 88905656 
Symbol Table                                                                                   Fri Nov 13 21:27:12 2020

              main@TX_rate 07FC                         l80 0F26                         l81 0F29  
                       l90 0F44                         l82 0F2C                         l91 0F47  
                       l83 0F2F                         l92 0F4A                         l84 0F32  
                       l93 0F4D                         l85 0F35                         l94 0F50  
                       l86 0F38                         l78 0F23                         l87 0F3B  
                       l95 0F8A                         l88 0F3E                         l89 0F41  
                       l98 074E               ___awdiv@sign 0021        __Umul8_16@word_mpld 0022  
                      l101 0DC8                        l110 0EBE                        l104 0DF6  
                      l113 0E72                        l107 0E02                        l140 0DD5  
                      l134 053E                        l143 0DE4                        l504 0FEA  
                      l610 037B                        l507 0FFF                        l604 02FE  
                      l700 029F                        l608 039F                        l712 0293  
                      l456 0F1E                        l625 0431                        l617 04D7  
                      l706 021B                        l635 0475                        l740 07FB  
                      l629 0453                        l646 04CE                        l638 04AC  
                      l647 04D7                        l751 07C7                        l752 07D3  
                      l744 07AD                        l497 0FFF                        l738 0772  
                      l757 0E16                        l759 0E26                        _RC0 0070  
                      _RC1 0071                        _RA5 0065                        _RC2 0072  
                      _RB4 006C                        _RC3 0073                        _RB5 006D  
                      _RC4 0074                        _RC5 0075                        _RC6 0076  
                      _RC7 0077                        wreg 0009               ___flmul@aexp 003C  
             ___flmul@bexp 0041               ___flmul@sign 003B               ___flmul@temp 0046  
             ___flmul@prod 0042               __CFG_LVP$OFF 0000               ___fltol@exp1 0079  
                     l2011 0DD2                       l2013 0DD4                       l2021 0DE2  
                     l2007 0DC9                       l2023 0DE3                       l2015 0DD6  
                     l2009 0DCD                       l2017 0DD9                       l2201 0FCA  
                     l2019 0DDD                       l2211 0FEF                       l2203 0FDA  
                     l2301 01E4                       l2221 0057                       l2213 0FF4  
                     l2303 01EB                       l2311 01FB                       l2231 006C  
                     l2223 0058                       l2215 0049                       l1601 0348  
                     l2313 01FF                       l2305 01EF                       l2241 0082  
                     l2233 0074                       l2225 005D                       l2217 004F  
                     l2209 0FE1                       l2401 0EBA                       l1611 0387  
                     l1603 0349                       l1531 02AF                       l1523 02A0  
                     l2171 0E12                       l2331 0249                       l2323 0220  
                     l2315 0200                       l2307 01F0                       l2251 009E  
                     l2243 0087                       l2235 0079                       l2227 0062  
                     l2219 0053                       l2411 0EBF                       l1701 04B6  
                     l1621 03A3                       l1613 038B                       l1605 0360  
                     l1533 02B4                       l1541 02C4                       l1525 02A6  
                     l2173 0E1D                       l2165 0E05                       l2341 027B  
                     l2325 0225                       l2333 024D                       l2317 0204  
                     l2309 01F7                       l2261 00BE                       l2253 00A3  
                     l2245 008C                       l2237 007D                       l2229 006A  
                     l2181 0F97                       l2405 0E27                       l2421 0ED0  
                     l2413 0EC1                       l2501 0567                       l1711 04CA  
                     l1703 04BE                       l1631 03BD                       l1623 03A8  
                     l1615 038C                       l1607 037F                       l1551 02DC  
                     l1543 02CC                       l1535 02B9                       l1527 02AA  
                     l2175 0E22                       l2167 0E07                       l2351 0297  
                     l2343 027D                       l2335 025A                       l2327 022D  
                     l2319 0218                       l2271 0119                       l2263 00CB  
                     l2255 00A8                       l2247 0094                       l2239 0081  
                     l2191 0FBC                       l2407 0E6E                       l2431 0EE4  
                     l2423 0ED5                       l2415 0EC5                       l2503 0576  
                     l1713 04D2                       l1705 04C3                       l1641 03CE  
                     l1633 03C1                       l1617 0394                       l1609 0385  
                     l1561 02F3                       l1553 02E0                       l1545 02D1  
                     l1537 02C1                       l1529 02AE                       l2169 0E0E  
                     l2345 028A                       l2337 0264                       l2329 0231  
                     l2281 014E                       l2273 0126                       l2265 00E5  
                     l2249 0096                       l2193 0FBE                       l2185 0FA0  
                     l2361 076A                       l1481 0F53                       l2441 0F04  
                     l2433 0EE9                       l2425 0ED9                       l2417 0ECA  
                     l2505 0629                       l1715 04D6                       l1707 04C4  
                     l1651 041B                       l1643 03D6                       l1635 03C7  
                     l1627 03B1                       l1619 0398                       l1571 030C  
                     l1563 02F4                       l1555 02E1                       l1547 02D7  
                     l1539 02C2                       l2347 028E                       l2339 0272  
                     l2291 0191                       l2283 0155                       l2275 012D  
                     l2267 00F2                       l2259 00B1                       l2195 0FC2  
                     l2187 0FB3                       l2179 0F8B                       l2371 0793  
                     l2363 077A                       l2355 0751                       l2531 0F58  
                     l2451 0F1A                       l2443 0F05                       l2435 0EED  
                     l2427 0EDB                       l2419 0ECC                       l2507 062B  
                     l1709 04C8                       l1653 0420                       l1637 03C9  
                     l1629 03B9                       l1645 03DB                       l1581 0320  
                     l1573 0310                       l1557 02E6                       l1565 02F6  
                     l1549 02D8                       l2349 028F                       l2293 01A5  
                     l2285 0169                       l2277 013A                       l2269 010C  
                     l2189 0FB4                       l2381 07BD                       l2373 079A  
                     l2357 0756                       l1477 0F1F                       l1901 0640  
                     l2445 0F0A                       l2437 0EF1                       l2429 0EE1  
                     l2509 063B                       l2461 04E7                       l1671 045A  
                     l1663 0447                       l1647 03F1                       l1655 0429  
                     l1639 03CD                       l1591 0334                       l1583 0324  
                     l1575 0314                       l1567 0304                       l1559 02EB  
                     l2295 01BA                       l2287 0170                       l2279 0141  
                     l2391 07EE                       l2383 07C1                       l2375 079E  
                     l2367 0783                       l2359 075A                       l1911 065A  
                     l1903 0640                       l2439 0F00                       l2447 0F10  
                     l2471 04FF                       l2463 04E9                       l2455 04D8  
                     l1681 0468                       l1673 045C                       l1665 044E  
                     l1657 0439                       l1649 0415                       l1593 0338  
                     l1585 0328                       l1577 0318                       l1569 0308  
                     l2297 01D1                       l2289 0184                       l2393 07F2  
                     l2385 07CB                       l2377 07A6                       l2369 0788  
                     l1921 0686                       l1913 066C                       l1905 0647  
                     l2449 0F15                       l2473 04FF                       l2465 04EC  
                     l2457 04DC                       l1691 047F                       l1683 046C  
                     l1675 0461                       l1667 0452                       l1659 043E  
                     l1595 033C                       l1587 032C                       l1579 031C  
                     l2299 01D8                       l2395 07F3                       l2387 07D5  
                     l2379 07B4                       l1931 06A7                       l1923 068D  
                     l1915 0673                       l1907 064F                       l2491 054E  
                     l2475 0502                       l2467 04EF                       l2459 04DF  
                     l1693 0487                       l1685 0472                       l1669 0457  
                     l1677 0463                       l1597 0340                       l1589 0330  
                     l2389 07E9                       l1941 06D3                       l1933 06B9  
                     l1925 0694                       l1917 067B                       l1909 0652  
                     l2493 0550                       l2485 0510                       l2477 0502  
                     l2469 04F2                       l1695 048B                       l1679 0467  
                     l1599 0344                       l1951 06F4                       l1943 06DA  
                     l1935 06C0                       l1927 069C                       l1919 067E  
                     l2399 0E73                       l2495 0558                       l2487 0517  
                     l2479 050D                       l1697 04A8                       l1689 047A  
                     l1961 0720                       l1953 0706                       l1945 06E1  
                     l1937 06C8                       l1929 069F                       l2497 055A  
                     l2489 0537                       l1699 04B1                       l1971 0741  
                     l1963 0727                       l1955 070D                       l1947 06E9  
                     l1939 06CB                       l2499 0562                       l1981 0DC7  
                     l1973 0747                       l1965 072E                       l1957 0715  
                     l1949 06EC                       l1991 0DFA                       l1983 0DE5  
                     l1975 074B                       l1967 0736                       l1959 0718  
                     l1977 0DC1                       l1985 0DE5                       l1969 0739  
                     l1979 0DC6                       l1987 0DEA                       l1989 0DF5  
         ??_Send_DTMF_pack 0020                       u1300 02AE                       u1301 02AD  
                     u1310 02B4                       u1311 02B3                       u1400 036A  
                     u1320 02B9                       u1401 0368                       u1321 02B8  
                     u1410 036B                       u1330 02D7                       u1331 02D6  
                     u1500 03CD                       u1420 037F                       u1340 02E0  
                     u1501 03CC                       u1421 037E                       u1341 02DF  
                     u1430 038B                       u1350 02E6                       u1431 038A  
                     u1351 02E5                       u2135 0661                       u3007 0554  
                     u1600 0467                       u1520 03F1                       u1360 02EB  
                     u1601 0466                       u1521 03F0                       u1361 02EA  
                     u2145 06AE                       u3017 055E                       u2170 0DFA  
                     u1610 046C                       u1530 0420                       u1450 039F  
                     u1370 0304                       u2330 0E12                       u2410 0FD9  
                     u2171 0DF9                       u1611 046B                       u1531 041F  
                     u1523 03ED                       u1515 03D0                       u1451 039E  
                     u1371 0303                       u2331 0E11                       u2411 0FD8  
                     u2155 06FB                       u3107 06E5                       u3027 064B  
                     u1700 04C3                       u1620 0472                       u1540 0439  
                     u1460 03A3                       u1380 0308                       u2500 0087  
                     u2420 0FE0                       u2165 0DED                       u1701 04C2  
                     u1621 0471                       u1541 0438                       u1461 03A2  
                     u1445 038E                       u1381 0307                       u2501 0086  
                     u2421 0FDF                       u2405 0FCB                       u3117 06F0  
                     u3037 0656                       u1710 04C8                       u1630 0479  
                     u1550 043E                       u1470 03A8                       u1390 0360  
                     u2350 0E22                       u2510 008C                       u1711 04C7  
                     u1631 0478                       u1551 043D                       u1471 03A7  
                     u1391 035F                       u2351 0E21                       u2511 008B  
                     u3127 0711                       u3047 0677                       u1720 04D6  
                     u1640 047F                       u1480 03BD                       u2600 01EF  
                     u2520 00A3                       u2440 0FEF                       u2360 0F97  
                     u1721 04D5                       u1641 047E                       u1481 03BC  
                     u2345 0E17                       u2601 01EE                       u2521 00A2  
                     u2441 0FEE                       u2361 0F96                       u3137 071C  
                     u3057 0682                       u1650 048B                       u1570 0452  
                     u1490 03C1                       u2530 00A8                       u2450 0FF4  
                     u2370 0FAD                       u1651 048A                       u1571 0451  
                     u1491 03C0                       u1395 035C                       u2531 00A7  
                     u2451 0FF3                       u2435 0FE2                       u3147 0732  
                     u3067 0698                       u1660 0499                       u1580 0457  
                     u2700 0272                       u2620 01FF                       u2460 0057  
                     u2380 0FC2                       u1581 0456                       u1565 0448  
                     u2701 0271                       u2621 01FE                       u2461 0056  
                     u2381 0FC1                       u3157 073D                       u3077 06A3  
                     u1670 04A8                       u1590 0461                       u2710 028E  
                     u2630 0204                       u2470 005D                       u2390 0FC9  
                     u1671 04A7                       u1591 0460                       u2711 028D  
                     u2631 0203                       u2615 01F1                       u2471 005C  
                     u2391 0FC8                       u2375 0FA9                       u3167 0748  
                     u3087 06C4                       u1680 04B1                       u2640 0218  
                     u2560 01B0                       u2480 0062                       u2800 07C1  
                     u2720 0756                       u1681 04B0                       u1665 0495  
                     u2705 026E                       u2641 0217                       u2545 0127  
                     u2481 0061                       u2801 07C0                       u2721 0755  
                     u3097 06CF                       u1690 04B6                       u2650 021F  
                     u2570 01C7                       u2490 0081                       u2810 07C7  
                     u2730 075A                       u1691 04B5                       u2651 021E  
                     u2555 0156                       u2491 0080                       u2811 07C6  
                     u2731 0759                       u2660 0225                       u2820 07CB  
                     u2740 077A                       u2900 0EF1                       u2661 0224  
                     u2565 01AC                       u2821 07CA                       u2741 0779  
                     u2901 0EF0                       u2670 0231                       u2830 07DF  
                     u2671 0230                       u2575 01C3                       u2680 023F  
                     u2840 07EE                       u2760 0799                       u2920 0F00  
                     u2585 01D2                       u2841 07ED                       u2761 0798  
                     u2921 0EFF                       u2690 025A                       u2850 07F2  
                     u2691 0259                       u2595 01E5                       u2851 07F1  
                     u2835 07DB                       u2755 078D                       u2915 0EF2  
                     u2780 07B3                       u2940 0F10                       u2860 0EC5  
                     u2685 023B                       u2781 07B2                       u2941 0F0F  
                     u2925 0EFC                       u2861 0EC4                       u2950 0F15  
                     u2870 0ED0                       u2695 0256                       u2775 07A7  
                     u2951 0F14                       u2935 0F06                       u2871 0ECF  
                     u2880 0EE1                       u2960 050A                       u2881 0EE0  
                     u2970 0517                       u2795 07B7                       u2971 0516  
                     u2980 0576                       u2981 0575                       u2895 0EE5  
                     u2985 0572                       u2997 04F8                       _main 04D8  
                     fsr0h 0005                       fsr1h 0007                       indf0 0000  
                     fsr0l 0004                       fsr1l 0006                       btemp 007E  
            _wind_time_low 00EC           __end_of_ADC_Init 0DC9           __end_of_ADC_Read 0E03  
                     start 0031              __CFG_CSWEN$ON 0000            __end_of_HighIsr 0031  
             ?_nib_to_DTMF 0072              ___fltol@sign1 0078            __end_of___fladd 04D8  
                    ?_main 0070            __end_of___awdiv 0F1F              __CFG_WDTE$OFF 0000  
          __end_of___flmul 02A0            __end_of___fltol 1000            ___awdiv@divisor 0072  
                    i1l151 002F                      i1l149 0019            ___awdiv@counter 0020  
                    _TMR0H 0016                      _TMR0L 0015                      _PORTB 000D  
                    _PORTC 000E                      _TRISA 008C                      _TRISB 008D  
                    _TRISC 008E             __CFG_FCMEN$OFF 0000             _wind_time_high 00EA  
                    main@x 00E4               main@pressure 00E0               main@wind_avg 00A0  
             main@wind_mph 00E2                      status 0003                      wtemp0 007E  
          __initialization 0033               __end_of_main 0640       __end_of_ConfigTimers 0DE5  
                   ??_main 0069   __end_of_ConfigInterrupts 0DD6                     _ADCON0 009D  
                   _ADCON1 009E                     _ADRESH 009C                     _ADRESL 009B  
         ___awdiv@dividend 0074                     _ANSELA 018C                     _ANSELB 018D  
                   _ANSELC 018E         __CFG_RSTOSC$HFINT1 0000                     i1l2131 0012  
                   i1l2141 0024                     i1l2133 0016                     i1l2125 0006  
                   i1l2143 002D                     i1l2135 0017                     i1l2127 000B  
                   i1l2137 001A                     i1l2129 0011                     i1l2139 001C  
                   u231_20 000B                     u231_21 000A                     u232_20 0011  
                   u232_21 0010                  ??_HighIsr 0070           __end_of___xxtofl 07FC  
                ??___fladd 0050                  ??___awdiv 0076                  ??___flmul 0036  
                ??___fltol 0060            ADC_Read@channel 0072         __size_of_Temp_Conv 004C  
         ___awdiv@quotient 0022         __size_of_Pres_Conv 004C         __size_of__Umul8_16 0024  
                ?_ADC_Init 0070                  ?_ADC_Read 0072               ___xxtofl@arg 002A  
             ___xxtofl@exp 0029               ___xxtofl@val 0020    __end_of__initialization 0045  
               ___fltol@f1 005C             __pcstackCOMMON 0070       __size_of_nib_to_DTMF 006C  
               ??_ADC_Init 0072                 ??_ADC_Read 0074                 __pbssBANK1 00E6  
               __pbssBANK2 0120          __end_of_Temp_Conv 0EBF          __end_of_Pres_Conv 0E73  
    __size_of_ConfigTimers 000F          __end_of__Umul8_16 0E27                 __pmaintext 04D8  
               __pintentry 0004              Temp_Conv@temp 0067                  ?___xxtofl 0020  
             _ConfigTimers 0DD6                    _Dig_val 00E6                    _HighIsr 0004  
                  ___fladd 02A0                    ___awdiv 0EBF                    ___flmul 0049  
                  ___fltol 0F8B                    __ptext1 0EBF                    __ptext2 0E73  
                  __ptext3 0640                    __ptext4 0F1F                    __ptext5 0E27  
                  __ptext6 074F                    __ptext7 0F8B                    __ptext8 0049  
                  __ptext9 0E03                 ??___xxtofl 0024          ?_ConfigInterrupts 0070  
                  clrloop0 0DBC       end_of_initialization 0045         ??_ConfigInterrupts 0072  
            Pres_Conv@pres 0067    __size_of_Send_DTMF_pack 010F                  _TMR0Hbits 0016  
                _TMR0Lbits 0015             nib_to_DTMF@nib 0072                ___fladd@grs 005B  
            ___xxtofl@sign 0028          __size_of_ADC_Init 0008          __size_of_ADC_Read 001E  
         __CFG_FEXTOSC$OFF 0000                ___flmul@grs 003D        start_initialization 0033  
                _Temp_Conv 0E73                  _Pres_Conv 0E27              ??_nib_to_DTMF 0074  
                __Umul8_16 0E03                  ___fladd@a 004C                  ___fladd@b 0048  
                ___flmul@a 0032                  ___flmul@b 002E                __pbssCOMMON 007A  
                ___latbits 0001              __pcstackBANK0 0020              __pcstackBANK1 00A0  
        __size_of___xxtofl 00AD                   ?_HighIsr 0070                 ?_Temp_Conv 0065  
           _Send_DTMF_pack 0640                 ?_Pres_Conv 0065               Temp_Conv@V2T 0065  
                 ?___fladd 0048                   ?___awdiv 0072                   ?___flmul 002E  
                 ?___fltol 005C                 ?__Umul8_16 0072        __end_of_nib_to_DTMF 0F8B  
                 _ADC_Init 0DC1                   _ADC_Read 0DE5                ADC_Read@val 0076  
                clear_ram0 0DBB                   _PIE0bits 0090     __end_of_Send_DTMF_pack 074F  
             Pres_Conv@V2P 0065                   _PIR0bits 0010  __size_of_ConfigInterrupts 000D  
                main@F6798 0120                 _ADCON0bits 009D           __size_of_HighIsr 002D  
          ?_Send_DTMF_pack 0074                ??_Temp_Conv 007A                ??_Pres_Conv 007A  
              ??__Umul8_16 0074                _nib_to_DTMF 0F1F           __size_of___fladd 0238  
         __size_of___awdiv 0060           __size_of___flmul 0257           __size_of___fltol 0075  
                 ___xxtofl 074F                 _T0CON0bits 0017                 _T0CON1bits 0018  
                 _main$975 00DA                   _main$976 00DC                   __ptext10 02A0  
                 __ptext11 0DD6                   __ptext12 0DC9                   __ptext13 0DE5  
                 __ptext14 0DC1              __size_of_main 0168                   int$flags 007E  
                 _wind_set 007A            main@temperature 00DE        __end_ofmain@TX_rate 07FE  
               _INTCONbits 000B              ?_ConfigTimers 0070                 _INTPPSbits 0E10  
                 intlevel1 0000          __CFG_CLKOUTEN$OFF 0000        Send_DTMF_pack@press 0078  
         _ConfigInterrupts 0DC9              __pstringtext1 07FC     __Umul8_16@multiplicand 0072  
       Send_DTMF_pack@high 0023         Send_DTMF_pack@wind 0074             ??_ConfigTimers 0072  
            ___fladd@signs 0058          Send_DTMF_pack@low 0025               ___fladd@aexp 0059  
             ___fladd@bexp 005A  Send_DTMF_pack@temperature 0076       __Umul8_16@multiplier 0024  
        __Umul8_16@product 0020  
